Archive member included because of file (symbol)

../../prjgcc/MUXlab4/lib\libMUXlab4p.a(ADC_HAL.MUXLAB4p.o)
                              ./obj/MainTask.o (ANA_IN_ReadValue)
../../prjgcc/MUXlab4/lib\libMUXlab4p.a(CAN_HAL.MUXLAB4p.o)
                              ./obj/CAN_INIT.o (CAN_SelectResistor)
../../prjgcc/MUXlab4/lib\libMUXlab4p.a(CAN_J1939.MUXLAB4p.o)
                              ./obj/CAN_INIT.o (INIT_J1939_TP)
../../prjgcc/MUXlab4/lib\libMUXlab4p.a(CCP_HAL.MUXLAB4p.o)
                              ./obj/CAN_INIT.o (CCP_Init)
../../prjgcc/MUXlab4/lib\libMUXlab4p.a(DAC_HAL.MUXLAB4p.o)
                              ./obj/MainTask.o (setAnaOutputVoltage)
../../prjgcc/MUXlab4/lib\libMUXlab4p.a(eTPU_HAL.MUXLAB4p.o)
                              ./obj/MainTask.o (eTPU_Configure10KFreqInputPPA)
../../prjgcc/MUXlab4/lib\libMUXlab4p.a(GPIO_HAL.MUXLAB4p.o)
                              ./obj/APP_Tasks.o (applyDigitalInputsCfg)
../../prjgcc/MUXlab4/lib\libMUXlab4p.a(libMUXlab4.MUXLAB4p.o)
                              ./obj/main.o (LIB_Init)
../../prjgcc/MUXlab4/lib\libMUXlab4p.a(LIN_HAL.MUXLAB4p.o)
                              ../../prjgcc/MUXlab4/lib\libMUXlab4p.a(libMUXlab4.MUXLAB4p.o) (LinIf_LibInit)
../../prjgcc/MUXlab4/lib\libMUXlab4p.a(wakeup_HAL.MUXLAB4p.o)
                              ./obj/APP_Tasks.o (WKUP_Verify)
../../prjgcc/MUXlab4/lib\libMUXlab4p.a(LIN.MUXLAB4p.o)
                              ../../prjgcc/MUXlab4/lib\libMUXlab4p.a(libMUXlab4.MUXLAB4p.o) (LIN_EnableTransceivers)
../../prjgcc/MUXlab4/lib\libMUXlab4p.a(OS_Core.MUXLAB4p.o)
                              ../../prjgcc/MUXlab4/lib\libMUXlab4p.a(GPIO_HAL.MUXLAB4p.o) (u32TickTimer)
../../prjgcc/MUXlab4/lib\libMUXlab4p.a(OS_TimeBase.MUXLAB4p.o)
                              ../../prjgcc/MUXlab4/lib\libMUXlab4p.a(OS_Core.MUXLAB4p.o) (enableTimeBase)
../../prjgcc/MUXlab4/lib\libMUXlab4p.a(SPI.MUXLAB4p.o)
                              ../../prjgcc/MUXlab4/lib\libMUXlab4p.a(eTPU_HAL.MUXLAB4p.o) (SPI_Init)
../../prjgcc/MUXlab4/lib\libMUXlab4p.a(IRQ.MUXLAB4p.o)
                              ./obj/main.o (IRQ_InitVectors)
../../prjgcc/MUXlab4/lib\libMUXlab4p.a(mpc5500_ccdcfg.MUXLAB4p.o)
                              ./obj/__start.o (cfg_mpc5500ccd)
../../prjgcc/MUXlab4/lib\libMUXlab4p.a(USB.MUXLAB4p.o)
                              ../../prjgcc/MUXlab4/lib\libMUXlab4p.a(OS_Core.MUXLAB4p.o) (u08TxDebugTimeout)
../../prjgcc/MUXlab4/lib\libMUXlab4p.a(handlers.MUXLAB4p.o)
                              ../../prjgcc/MUXlab4/lib\libMUXlab4p.a(IRQ.MUXLAB4p.o) (IVOR4Handler)
../../prjgcc/MUXlab4/lib\libMUXlab4p.a(tb.MUXLAB4p.o)
                              ../../prjgcc/MUXlab4/lib\libMUXlab4p.a(OS_Core.MUXLAB4p.o) (readTimeBase)
../../prjgcc/MUXlab4/lib\libMUXlab4p.a(CCP.MUXLAB4p.o)
                              ../../prjgcc/MUXlab4/lib\libMUXlab4p.a(CCP_HAL.MUXLAB4p.o) (DTO_object)
../../prjgcc/MUXlab4/lib\libMUXlab4p.a(ADC.MUXLAB4p.o)
                              ../../prjgcc/MUXlab4/lib\libMUXlab4p.a(ADC_HAL.MUXLAB4p.o) (ADC_Init)
../../prjgcc/MUXlab4/lib\libMUXlab4p.a(can.MUXLAB4p.o)
                              ../../prjgcc/MUXlab4/lib\libMUXlab4p.a(CAN_HAL.MUXLAB4p.o) (flexCanAddress)
../../prjgcc/MUXlab4/lib\libMUXlab4p.a(fifoCan.MUXLAB4p.o)
                              ../../prjgcc/MUXlab4/lib\libMUXlab4p.a(can.MUXLAB4p.o) (FIFO_CAN_Init)
../../prjgcc/MUXlab4/lib\libMUXlab4p.a(EMIOS.MUXLAB4p.o)
                              ../../prjgcc/MUXlab4/lib\libMUXlab4p.a(libMUXlab4.MUXLAB4p.o) (EMIOS_Init)
../../prjgcc/MUXlab4/lib\libMUXlab4p.a(etpu_util.MUXLAB4p.o)
                              ../../prjgcc/MUXlab4/lib\libMUXlab4p.a(eTPU_HAL.MUXLAB4p.o) (fs_etpu_init)
../../prjgcc/MUXlab4/lib\libMUXlab4p.a(etpu_fpm.MUXLAB4p.o)
                              ../../prjgcc/MUXlab4/lib\libMUXlab4p.a(eTPU_HAL.MUXLAB4p.o) (fs_etpu_fpm_init)
../../prjgcc/MUXlab4/lib\libMUXlab4p.a(etpu_pwm.MUXLAB4p.o)
                              ../../prjgcc/MUXlab4/lib\libMUXlab4p.a(eTPU_HAL.MUXLAB4p.o) (fs_etpu_pwm_init)
../../prjgcc/MUXlab4/lib\libMUXlab4p.a(etpu_ppa.MUXLAB4p.o)
                              ../../prjgcc/MUXlab4/lib\libMUXlab4p.a(eTPU_HAL.MUXLAB4p.o) (fs_etpu_ppa_init)
../../prjgcc/MUXlab4/lib\libMUXlab4p.a(flash.MUXLAB4p.o)
                              ../../prjgcc/MUXlab4/lib\libMUXlab4p.a(USB.MUXLAB4p.o) (FLASH_Unlock)
../../prjgcc/MUXlab4/lib\libMUXlab4p.a(GPIO.MUXLAB4p.o)
                              ../../prjgcc/MUXlab4/lib\libMUXlab4p.a(eTPU_HAL.MUXLAB4p.o) (GPIO_InitInputPin)
../../prjgcc/MUXlab4/lib\libMUXlab4p.a(IntcIsrVectors.MUXLAB4p.o)
                              ../../prjgcc/MUXlab4/lib\libMUXlab4p.a(IRQ.MUXLAB4p.o) (IntcIsrVectorTable)
../../prjgcc/MUXlab4/lib\libMUXlab4p.a(GasSensor.MUXLAB4p.o)
                              ../../prjgcc/MUXlab4/lib\libMUXlab4p.a(IntcIsrVectors.MUXLAB4p.o) (GAS_TimerIRQ)
../../prjgcc/MUXlab4/lib\libMUXlab4p.a(SoftSPI.MUXLAB4p.o)
                              ../../prjgcc/MUXlab4/lib\libMUXlab4p.a(GasSensor.MUXLAB4p.o) (SOFT_SPI_Init)
C:/Program Files (x86)/Nsi/powerpc-eabispe/bin/../lib/gcc/powerpc-eabispe/3.4.4/../../../../powerpc-eabispe/lib\libm.a(s_ceil.o)
                              ./obj/MainTask.o (ceil)
C:/Program Files (x86)/Nsi/powerpc-eabispe/bin/../lib/gcc/powerpc-eabispe/3.4.4/../../../../powerpc-eabispe/lib\libm.a(s_floor.o)
                              ./obj/MainTask.o (floor)
C:/Program Files (x86)/Nsi/powerpc-eabispe/bin/../lib/gcc/powerpc-eabispe/3.4.4\libgcc.a(_fixunsdfsi.o)
                              ./obj/DiagnosticsCAN.o (__fixunsdfsi)
C:/Program Files (x86)/Nsi/powerpc-eabispe/bin/../lib/gcc/powerpc-eabispe/3.4.4\libgcc.a(_udivdi3.o)
                              ../../prjgcc/MUXlab4/lib\libMUXlab4p.a(etpu_fpm.MUXLAB4p.o) (__udivdi3)
C:/Program Files (x86)/Nsi/powerpc-eabispe/bin/../lib/gcc/powerpc-eabispe/3.4.4\libgcc.a(_umoddi3.o)
                              ../../prjgcc/MUXlab4/lib\libMUXlab4p.a(etpu_fpm.MUXLAB4p.o) (__umoddi3)
C:/Program Files (x86)/Nsi/powerpc-eabispe/bin/../lib/gcc/powerpc-eabispe/3.4.4\libgcc.a(_sf_to_df.o)
                              ./obj/MainTask.o (__extendsfdf2)
C:/Program Files (x86)/Nsi/powerpc-eabispe/bin/../lib/gcc/powerpc-eabispe/3.4.4\libgcc.a(_addsub_df.o)
                              ./obj/MainTask.o (__adddf3)
C:/Program Files (x86)/Nsi/powerpc-eabispe/bin/../lib/gcc/powerpc-eabispe/3.4.4\libgcc.a(_mul_df.o)
                              ./obj/MainTask.o (__muldf3)
C:/Program Files (x86)/Nsi/powerpc-eabispe/bin/../lib/gcc/powerpc-eabispe/3.4.4\libgcc.a(_div_df.o)
                              ./obj/MainTask.o (__divdf3)
C:/Program Files (x86)/Nsi/powerpc-eabispe/bin/../lib/gcc/powerpc-eabispe/3.4.4\libgcc.a(_eq_df.o)
                              ./obj/rt_nonfinite.o (__eqdf2)
C:/Program Files (x86)/Nsi/powerpc-eabispe/bin/../lib/gcc/powerpc-eabispe/3.4.4\libgcc.a(_ne_df.o)
                              ./obj/rt_nonfinite.o (__nedf2)
C:/Program Files (x86)/Nsi/powerpc-eabispe/bin/../lib/gcc/powerpc-eabispe/3.4.4\libgcc.a(_gt_df.o)
                              ./obj/MainTask.o (__gtdf2)
C:/Program Files (x86)/Nsi/powerpc-eabispe/bin/../lib/gcc/powerpc-eabispe/3.4.4\libgcc.a(_ge_df.o)
                              ./obj/MainTask.o (__gedf2)
C:/Program Files (x86)/Nsi/powerpc-eabispe/bin/../lib/gcc/powerpc-eabispe/3.4.4\libgcc.a(_lt_df.o)
                              ./obj/MainTask.o (__ltdf2)
C:/Program Files (x86)/Nsi/powerpc-eabispe/bin/../lib/gcc/powerpc-eabispe/3.4.4\libgcc.a(_si_to_df.o)
                              ./obj/MainTask.o (__floatsidf)
C:/Program Files (x86)/Nsi/powerpc-eabispe/bin/../lib/gcc/powerpc-eabispe/3.4.4\libgcc.a(_df_to_si.o)
                              ./obj/MainTask.o (__fixdfsi)
C:/Program Files (x86)/Nsi/powerpc-eabispe/bin/../lib/gcc/powerpc-eabispe/3.4.4\libgcc.a(_make_df.o)
                              C:/Program Files (x86)/Nsi/powerpc-eabispe/bin/../lib/gcc/powerpc-eabispe/3.4.4\libgcc.a(_sf_to_df.o) (__make_dp)
C:/Program Files (x86)/Nsi/powerpc-eabispe/bin/../lib/gcc/powerpc-eabispe/3.4.4\libgcc.a(_df_to_sf.o)
                              ./obj/MainTask.o (__truncdfsf2)
C:/Program Files (x86)/Nsi/powerpc-eabispe/bin/../lib/gcc/powerpc-eabispe/3.4.4\libgcc.a(_thenan_df.o)
                              C:/Program Files (x86)/Nsi/powerpc-eabispe/bin/../lib/gcc/powerpc-eabispe/3.4.4\libgcc.a(_addsub_df.o) (__thenan_df)
C:/Program Files (x86)/Nsi/powerpc-eabispe/bin/../lib/gcc/powerpc-eabispe/3.4.4\libgcc.a(eabi.o)
                              ./obj/main.o (__eabi)
C:/Program Files (x86)/Nsi/powerpc-eabispe/bin/../lib/gcc/powerpc-eabispe/3.4.4\libgcc.a(_lshrdi3.o)
                              C:/Program Files (x86)/Nsi/powerpc-eabispe/bin/../lib/gcc/powerpc-eabispe/3.4.4\libgcc.a(_df_to_si.o) (__lshrdi3)
C:/Program Files (x86)/Nsi/powerpc-eabispe/bin/../lib/gcc/powerpc-eabispe/3.4.4\libgcc.a(_unpack_sf.o)
                              C:/Program Files (x86)/Nsi/powerpc-eabispe/bin/../lib/gcc/powerpc-eabispe/3.4.4\libgcc.a(_sf_to_df.o) (__unpack_f)
C:/Program Files (x86)/Nsi/powerpc-eabispe/bin/../lib/gcc/powerpc-eabispe/3.4.4\libgcc.a(_make_sf.o)
                              C:/Program Files (x86)/Nsi/powerpc-eabispe/bin/../lib/gcc/powerpc-eabispe/3.4.4\libgcc.a(_df_to_sf.o) (__make_fp)
C:/Program Files (x86)/Nsi/powerpc-eabispe/bin/../lib/gcc/powerpc-eabispe/3.4.4\libgcc.a(_pack_df.o)
                              C:/Program Files (x86)/Nsi/powerpc-eabispe/bin/../lib/gcc/powerpc-eabispe/3.4.4\libgcc.a(_addsub_df.o) (__pack_d)
C:/Program Files (x86)/Nsi/powerpc-eabispe/bin/../lib/gcc/powerpc-eabispe/3.4.4\libgcc.a(_unpack_df.o)
                              C:/Program Files (x86)/Nsi/powerpc-eabispe/bin/../lib/gcc/powerpc-eabispe/3.4.4\libgcc.a(_addsub_df.o) (__unpack_d)
C:/Program Files (x86)/Nsi/powerpc-eabispe/bin/../lib/gcc/powerpc-eabispe/3.4.4\libgcc.a(_fpcmp_parts_df.o)
                              C:/Program Files (x86)/Nsi/powerpc-eabispe/bin/../lib/gcc/powerpc-eabispe/3.4.4\libgcc.a(_eq_df.o) (__fpcmp_parts_d)
C:/Program Files (x86)/Nsi/powerpc-eabispe/bin/../lib/gcc/powerpc-eabispe/3.4.4\libgcc.a(_ashldi3.o)
                              C:/Program Files (x86)/Nsi/powerpc-eabispe/bin/../lib/gcc/powerpc-eabispe/3.4.4\libgcc.a(_pack_df.o) (__ashldi3)
C:/Program Files (x86)/Nsi/powerpc-eabispe/bin/../lib/gcc/powerpc-eabispe/3.4.4\libgcc.a(_pack_sf.o)
                              C:/Program Files (x86)/Nsi/powerpc-eabispe/bin/../lib/gcc/powerpc-eabispe/3.4.4\libgcc.a(_make_sf.o) (__pack_f)
C:/Program Files (x86)/Nsi/powerpc-eabispe/bin/../lib/gcc/powerpc-eabispe/3.4.4/../../../../powerpc-eabispe/lib\libc.a(memcpy.o)
                              ./obj/CRCJ1850.o (memcpy)
C:/Program Files (x86)/Nsi/powerpc-eabispe/bin/../lib/gcc/powerpc-eabispe/3.4.4/../../../../powerpc-eabispe/lib\libc.a(memset.o)
                              ./obj/TBRe_Mod.o (memset)
C:/Program Files (x86)/Nsi/powerpc-eabispe/bin/../lib/gcc/powerpc-eabispe/3.4.4/../../../../powerpc-eabispe/lib\libc.a(strlen.o)
                              ../../prjgcc/MUXlab4/lib\libMUXlab4p.a(OS_Core.MUXLAB4p.o) (strlen)

Allocating common symbols
Common symbol       size              file

nbRxFramesUsedByModel
                    0x5               ../../prjgcc/MUXlab4/lib\libMUXlab4p.a(can.MUXLAB4p.o)
objCan1BMS_Feedback_1
                    0x20              ./obj/main.o
J1939TP_Table       0xa0              ../../prjgcc/MUXlab4/lib\libMUXlab4p.a(CAN_J1939.MUXLAB4p.o)
canErrSaveHS        0x5               ../../prjgcc/MUXlab4/lib\libMUXlab4p.a(can.MUXLAB4p.o)
sigCan2TxHC1_DemandsSignals
                    0x24              ./obj/main.o
sigCan1TxVCU_DiagnosticsSignals
                    0xd8              ./obj/main.o
u16ResolutionRegToWrite
                    0x2               ../../prjgcc/MUXlab4/lib\libMUXlab4p.a(GasSensor.MUXLAB4p.o)
currentMessageHeader
                    0x6               ../../prjgcc/MUXlab4/lib\libMUXlab4p.a(USB.MUXLAB4p.o)
objCan2HS3_Temperature_Feedback
                    0x20              ./obj/main.o
objCan1VCU_Diagnostics
                    0x20              ./obj/main.o
u08TaskSendUSBErrorMsg
                    0x1               ../../prjgcc/MUXlab4/lib\libMUXlab4p.a(USB.MUXLAB4p.o)
masterChannel       0x20              ../../prjgcc/MUXlab4/lib\libMUXlab4p.a(LIN_HAL.MUXLAB4p.o)
sigCan1RxBMS_Feedback_2Signals
                    0x3c              ./obj/main.o
sigCan1TxVCU_IMD_StatusSignals
                    0x24              ./obj/main.o
sigCan1TxVCU_Pedal_PercentagesSignals
                    0x54              ./obj/main.o
nbTxFramesUsedByModel
                    0x5               ../../prjgcc/MUXlab4/lib\libMUXlab4p.a(can.MUXLAB4p.o)
USBPendingTaskActivated
                    0x1               ../../prjgcc/MUXlab4/lib\libMUXlab4p.a(USB.MUXLAB4p.o)
rtNaNF              0x4               ./obj/rt_nonfinite.o
digInputs           0xc0              ../../prjgcc/MUXlab4/lib\libMUXlab4p.a(GPIO_HAL.MUXLAB4p.o)
canErrSaveLS        0x2               ../../prjgcc/MUXlab4/lib\libMUXlab4p.a(can.MUXLAB4p.o)
pResolutionRegToRead
                    0x4               ../../prjgcc/MUXlab4/lib\libMUXlab4p.a(GasSensor.MUXLAB4p.o)
objCan1BMS_Feedback_2
                    0x20              ./obj/main.o
fifoCanTx           0x1450            ../../prjgcc/MUXlab4/lib\libMUXlab4p.a(fifoCan.MUXLAB4p.o)
sigCan1TxVCU_HW_IOSignals
                    0x78              ./obj/main.o
J1939_SA_FIELD      0x136             ../../prjgcc/MUXlab4/lib\libMUXlab4p.a(can.MUXLAB4p.o)
CRO_DAQ_object      0x20              ../../prjgcc/MUXlab4/lib\libMUXlab4p.a(CCP.MUXLAB4p.o)
Table_PGN           0x84              ../../prjgcc/MUXlab4/lib\libMUXlab4p.a(CAN_J1939.MUXLAB4p.o)
objCan2HC2_Demands  0x20              ./obj/main.o
OS_Scheduler        0x3df8            ../../prjgcc/MUXlab4/lib\libMUXlab4p.a(OS_Core.MUXLAB4p.o)
sigCan2RxHS1_Torque_FeedbackSignals
                    0x18              ./obj/main.o
gasSensorState      0x4               ../../prjgcc/MUXlab4/lib\libMUXlab4p.a(GasSensor.MUXLAB4p.o)
pHwConfigRegToRead  0x4               ../../prjgcc/MUXlab4/lib\libMUXlab4p.a(GasSensor.MUXLAB4p.o)
sigCan1RxBMS_Feedback_3Signals
                    0x48              ./obj/main.o
u32BreakLength      0x8               ../../prjgcc/MUXlab4/lib\libMUXlab4p.a(LIN.MUXLAB4p.o)
linStates           0x10              ../../prjgcc/MUXlab4/lib\libMUXlab4p.a(LIN.MUXLAB4p.o)
u08ChecksumTx       0x1               ../../prjgcc/MUXlab4/lib\libMUXlab4p.a(USB.MUXLAB4p.o)
u32SoftSpiShiftRegister
                    0x4               ../../prjgcc/MUXlab4/lib\libMUXlab4p.a(SoftSPI.MUXLAB4p.o)
u16HwConfigRegToWrite
                    0x2               ../../prjgcc/MUXlab4/lib\libMUXlab4p.a(GasSensor.MUXLAB4p.o)
pRhSetupRegToRead   0x4               ../../prjgcc/MUXlab4/lib\libMUXlab4p.a(GasSensor.MUXLAB4p.o)
objCan1VCU_Torque   0x20              ./obj/main.o
sigCan1TxVCU_Pedal_VoltagesSignals
                    0x30              ./obj/main.o
sigCan1RxSteeringWheelSensorSignals
                    0xc               ./obj/main.o
USBFifoRX           0x804             ../../prjgcc/MUXlab4/lib\libMUXlab4p.a(USB.MUXLAB4p.o)
num_packet          0x2               ../../prjgcc/MUXlab4/lib\libMUXlab4p.a(CAN_J1939.MUXLAB4p.o)
u08TaskSendUSBPendingData
                    0x1               ../../prjgcc/MUXlab4/lib\libMUXlab4p.a(USB.MUXLAB4p.o)
objCan2HS1_Torque_Feedback
                    0x20              ./obj/main.o
sigCan1RxBMS_Feedback_1Signals
                    0x30              ./obj/main.o
receive_buffer      0x8               ../../prjgcc/MUXlab4/lib\libMUXlab4p.a(CCP.MUXLAB4p.o)
u08HeatValue        0x1               ../../prjgcc/MUXlab4/lib\libMUXlab4p.a(GasSensor.MUXLAB4p.o)
LINChannelManagement
                    0x48              ../../prjgcc/MUXlab4/lib\libMUXlab4p.a(LIN.MUXLAB4p.o)
DTO_object          0x20              ../../prjgcc/MUXlab4/lib\libMUXlab4p.a(CCP.MUXLAB4p.o)
u32THeaderMaxLength
                    0x8               ../../prjgcc/MUXlab4/lib\libMUXlab4p.a(LIN.MUXLAB4p.o)
pUserRegToRead      0x4               ../../prjgcc/MUXlab4/lib\libMUXlab4p.a(GasSensor.MUXLAB4p.o)
objCan2HD4_Debug_Temperatures_B
                    0x20              ./obj/main.o
USBFifoTX           0x804             ../../prjgcc/MUXlab4/lib\libMUXlab4p.a(USB.MUXLAB4p.o)
bufferToGateway     0x136             ../../prjgcc/MUXlab4/lib\libMUXlab4p.a(can.MUXLAB4p.o)
smartGateways       0x28              ../../prjgcc/MUXlab4/lib\libMUXlab4p.a(can.MUXLAB4p.o)
canStatistics       0x64              ../../prjgcc/MUXlab4/lib\libMUXlab4p.a(can.MUXLAB4p.o)
objCan1Shutdown_Data
                    0x20              ./obj/main.o
sigCan1TxVCU_TorqueSignals
                    0x24              ./obj/main.o
objCan2HC4_Debug_Demands
                    0x20              ./obj/main.o
objCan1SteeringWheelSensor
                    0x20              ./obj/main.o
DATA_CRC            0x9               ./obj/DiagnosticsCAN.o
objCan2HS4_Fault_Info
                    0x20              ./obj/main.o
objCan2HC3_Battery_Demands
                    0x20              ./obj/main.o
SignalLentgh        0x1               ./obj/DiagnosticsCAN.o
u32THeaderTimeout   0x8               ../../prjgcc/MUXlab4/lib\libMUXlab4p.a(LIN.MUXLAB4p.o)
hardVersion         0x4               ../../prjgcc/MUXlab4/lib\libMUXlab4p.a(libMUXlab4.MUXLAB4p.o)
DTO_object2         0x20              ../../prjgcc/MUXlab4/lib\libMUXlab4p.a(CCP.MUXLAB4p.o)
Point_CRC_data      0x1               ./obj/DiagnosticsCAN.o
rtInfF              0x4               ./obj/rt_nonfinite.o
USBState            0x4               ../../prjgcc/MUXlab4/lib\libMUXlab4p.a(USB.MUXLAB4p.o)
boardType           0x4               ../../prjgcc/MUXlab4/lib\libMUXlab4p.a(libMUXlab4.MUXLAB4p.o)
objCan1VCU_Vehicle_Functionality
                    0x20              ./obj/main.o
softSpiCurrentState
                    0x4               ../../prjgcc/MUXlab4/lib\libMUXlab4p.a(SoftSPI.MUXLAB4p.o)
rtInf               0x8               ./obj/rt_nonfinite.o
objCan1Front_Wheel_Speeds
                    0x20              ./obj/main.o
u08NbScheduleTables
                    0x2               ../../prjgcc/MUXlab4/lib\libMUXlab4p.a(LIN_HAL.MUXLAB4p.o)
sigCan2TxHC3_Battery_DemandsSignals
                    0x24              ./obj/main.o
u32BreakDetectionTreshold
                    0x8               ../../prjgcc/MUXlab4/lib\libMUXlab4p.a(LIN.MUXLAB4p.o)
sigCan2RxHD4_Debug_Temperatures_BSignals
                    0xc               ./obj/main.o
u16Max13036WordRegister
                    0x8               ../../prjgcc/MUXlab4/lib\libMUXlab4p.a(SPI.MUXLAB4p.o)
u08NbRemainingBits  0x1               ../../prjgcc/MUXlab4/lib\libMUXlab4p.a(SoftSPI.MUXLAB4p.o)
sigCan2TxHC4_Debug_DemandsSignals
                    0x18              ./obj/main.o
u16GasSetupRegToWrite
                    0x2               ../../prjgcc/MUXlab4/lib\libMUXlab4p.a(GasSensor.MUXLAB4p.o)
Point_CRC_data2     0x1               ./obj/DiagnosticsCAN.o
objCan1AccelerometerY
                    0x20              ./obj/main.o
pUncondFrames       0x200             ../../prjgcc/MUXlab4/lib\libMUXlab4p.a(LIN_HAL.MUXLAB4p.o)
rtNaN               0x8               ./obj/rt_nonfinite.o
u16BauderateSave    0x4               ../../prjgcc/MUXlab4/lib\libMUXlab4p.a(LIN.MUXLAB4p.o)
u08GasTaskId        0x1               ../../prjgcc/MUXlab4/lib\libMUXlab4p.a(GasSensor.MUXLAB4p.o)
packet_size         0x2               ../../prjgcc/MUXlab4/lib\libMUXlab4p.a(CAN_J1939.MUXLAB4p.o)
rtMinusInf          0x8               ./obj/rt_nonfinite.o
breakDetectionState
                    0x8               ../../prjgcc/MUXlab4/lib\libMUXlab4p.a(LIN.MUXLAB4p.o)
sigCan2TxHC2_DemandsSignals
                    0x24              ./obj/main.o
u32AdcResult        0xa0              ../../prjgcc/MUXlab4/lib\libMUXlab4p.a(ADC.MUXLAB4p.o)
J1939TP_BAMRX       0x4               ../../prjgcc/MUXlab4/lib\libMUXlab4p.a(CAN_J1939.MUXLAB4p.o)
J1939TP_DTRX        0x4               ../../prjgcc/MUXlab4/lib\libMUXlab4p.a(CAN_J1939.MUXLAB4p.o)
TP_status           0x1               ../../prjgcc/MUXlab4/lib\libMUXlab4p.a(CAN_J1939.MUXLAB4p.o)
bufferToEventID     0x140             ../../prjgcc/MUXlab4/lib\libMUXlab4p.a(can.MUXLAB4p.o)
sigCan1RxShutdown_DataSignals
                    0xf0              ./obj/main.o
maskPWMUsedByModel  0x1               ./obj/DiagnosticsCAN.o
CCP_DAQ_cnannels    0xa               ../../prjgcc/MUXlab4/lib\libMUXlab4p.a(CCP.MUXLAB4p.o)
TBRe_Mod_B          0x178             ./obj/TBRe_Mod.o
frameIDToEventID    0x80              ../../prjgcc/MUXlab4/lib\libMUXlab4p.a(LIN_HAL.MUXLAB4p.o)
sigCan1RxRear_Wheel_SpeedsSignals
                    0x24              ./obj/main.o
objCan1Rear_Wheel_Speeds
                    0x20              ./obj/main.o
smartGwEnabled      0x5               ../../prjgcc/MUXlab4/lib\libMUXlab4p.a(can.MUXLAB4p.o)
objCan1VCU_Pedal_Voltages
                    0x20              ./obj/main.o
J1939TP_DTRX2       0x4               ../../prjgcc/MUXlab4/lib\libMUXlab4p.a(CAN_J1939.MUXLAB4p.o)
sigCan1RxFront_Wheel_SpeedsSignals
                    0x24              ./obj/main.o
return_code         0x1               ../../prjgcc/MUXlab4/lib\libMUXlab4p.a(CCP.MUXLAB4p.o)
CRO_object          0x20              ../../prjgcc/MUXlab4/lib\libMUXlab4p.a(CCP.MUXLAB4p.o)
J1939TP_BAMRX2      0x4               ../../prjgcc/MUXlab4/lib\libMUXlab4p.a(CAN_J1939.MUXLAB4p.o)
ccp                 0x81c             ../../prjgcc/MUXlab4/lib\libMUXlab4p.a(CCP.MUXLAB4p.o)
bufferToCanObj      0x500             ../../prjgcc/MUXlab4/lib\libMUXlab4p.a(can.MUXLAB4p.o)
sigCan2RxHS4_Fault_InfoSignals
                    0x18              ./obj/main.o
u08CurrentReadAddress
                    0x1               ../../prjgcc/MUXlab4/lib\libMUXlab4p.a(GasSensor.MUXLAB4p.o)
objCan1VCU_Pedal_Percentages
                    0x20              ./obj/main.o
objCan1VCU_IMD_Status
                    0x20              ./obj/main.o
continuousTransmission
                    0x1               ../../prjgcc/MUXlab4/lib\libMUXlab4p.a(SoftSPI.MUXLAB4p.o)
frameCheckSmartGw   0x136             ../../prjgcc/MUXlab4/lib\libMUXlab4p.a(can.MUXLAB4p.o)
debug_buffer        0x8               ../../prjgcc/MUXlab4/lib\libMUXlab4p.a(CCP.MUXLAB4p.o)
sigCan1TxVCU_Vehicle_FunctionalitySignals
                    0x48              ./obj/main.o
sigCan2RxHS3_Temperature_FeedbackSignals
                    0x18              ./obj/main.o
fs_free_param       0x4               ../../prjgcc/MUXlab4/lib\libMUXlab4p.a(eTPU_HAL.MUXLAB4p.o)
objCan1VCU_HW_IO    0x20              ./obj/main.o
objCan2HC1_Demands  0x20              ./obj/main.o
TBRe_Mod_M_         0x2b8             ./obj/TBRe_Mod.o
u32maskHighReservedMbRx
                    0x14              ../../prjgcc/MUXlab4/lib\libMUXlab4p.a(can.MUXLAB4p.o)
u32maskReservedMbTx
                    0x14              ../../prjgcc/MUXlab4/lib\libMUXlab4p.a(can.MUXLAB4p.o)
u32maskLowReservedMbRx
                    0x14              ../../prjgcc/MUXlab4/lib\libMUXlab4p.a(can.MUXLAB4p.o)
pScheduleTables     0x80              ../../prjgcc/MUXlab4/lib\libMUXlab4p.a(LIN_HAL.MUXLAB4p.o)
pGasSetupRegToRead  0x4               ../../prjgcc/MUXlab4/lib\libMUXlab4p.a(GasSensor.MUXLAB4p.o)
gateways            0x200             ../../prjgcc/MUXlab4/lib\libMUXlab4p.a(can.MUXLAB4p.o)
CCP_channel         0x4               ../../prjgcc/MUXlab4/lib\libMUXlab4p.a(CCP.MUXLAB4p.o)
u08CurrentMAX13036  0x1               ../../prjgcc/MUXlab4/lib\libMUXlab4p.a(SPI.MUXLAB4p.o)
u32Tbit             0x8               ../../prjgcc/MUXlab4/lib\libMUXlab4p.a(LIN.MUXLAB4p.o)
objCan1BMS_Feedback_3
                    0x20              ./obj/main.o
u08TaskProcessUSBMsg
                    0x1               ../../prjgcc/MUXlab4/lib\libMUXlab4p.a(USB.MUXLAB4p.o)
rtMinusInfF         0x4               ./obj/rt_nonfinite.o
TBRe_Mod_DW         0x3c              ./obj/TBRe_Mod.o
num_sequence        0x2               ../../prjgcc/MUXlab4/lib\libMUXlab4p.a(CAN_J1939.MUXLAB4p.o)
u08BypassPWMMask    0x1               ./obj/DiagnosticsCAN.o
sigCan1RxAccelerometerYSignals
                    0xc               ./obj/main.o
u16RhSetupRegToWrite
                    0x2               ../../prjgcc/MUXlab4/lib\libMUXlab4p.a(GasSensor.MUXLAB4p.o)

Memory Configuration

Name             Origin             Length             Attributes
flash_rcw        0x00030000         0x00000008
int_flash        0x00032000         0x001ce000
saved_ram_user   0x20000000         0x0001f000
saved_ram_lib    0x2001f000         0x00001000
external_ram     0x3ff00000         0x00100000
int_sram         0x40000000         0x00014000
*default*        0x00000000         0xffffffff

Linker script and memory map

START GROUP
LOAD C:/Program Files (x86)/Nsi/powerpc-eabispe/bin/../lib/gcc/powerpc-eabispe/3.4.4/../../../../powerpc-eabispe/lib\libc.a
LOAD C:/Program Files (x86)/Nsi/powerpc-eabispe/bin/../lib/gcc/powerpc-eabispe/3.4.4/../../../../powerpc-eabispe/lib\libnosys.a
END GROUP
                0x20001000                SAVED_RAM_START = 0x20001000
                0x40081000                __SP_INIT = 0x40081000
                0x40080000                __SP_END = 0x40080000
                0x00001000                __STACK_SIZE = 0x1000

.rcw            0x00030000        0x8
 *(.rcw)
 .rcw           0x00030000        0x8 ./obj/mpc5500_asmcfg.o

.interp
 *(.interp)

.hash
 *(.hash)

.dynsym
 *(.dynsym)

.dynstr
 *(.dynstr)

.init           0x00032000      0x450
                0x00032000                PROVIDE (__init, .)
 *(.init)
 .init          0x00032000       0x48 ./obj/__start.o
                0x00032000                __start
 .init          0x00032048      0x408 ./obj/mpc5500_asmcfg.o
                0x00032160                cfg_FLASH
                0x0003213c                cfg_SRAM
                0x000322b8                cfg_MMU
                0x00032254                cfg_BSS
                0x000321bc                cfg_STACK
                0x00032240                cfg_PNTRS
                0x00032048                cfg_CACHE
                0x00032084                cfg_FMPLL
                0x00032280                cfg_ROMCPY

.text           0x00032450    0x16050
 *(.text)
 .text          0x00032450       0x70 ./obj/CAN_INIT.o
                0x00032450                INIT_CAN
 .text          0x000324c0       0x80 ./obj/CRCJ1850.o
                0x000324c0                CalcCrcJ1850
 .text          0x00032540      0x9b4 ./obj/DiagnosticsCAN.o
                0x00032544                DiagnosticsCAN_Start
                0x00032acc                DiagnosticsCAN
                0x00032540                DiagnosticsCAN_Init
 .text          0x00032ef4        0x4 ./obj/FlashData.o
                0x00032ef4                FlashData_Init
 .text          0x00032ef8        0xc ./obj/LIN_INIT.o
                0x00032ef8                INIT_LIN
 .text          0x00032f04     0x2cf0 ./obj/MainTask.o
                0x00032f04                rt_roundd_snf
                0x00035b78                MainTask_Update
                0x00033028                MainTask_Init
                0x00033128                MainTask_Start
                0x00033b08                MainTask
 .text          0x00035bf4      0x96c ./obj/TBRe_Mod.o
                0x00035ed0                MdlOutputs
                0x00035cc4                look1_iu16tdIu16_binlca
                0x00036318                MdlInitializeSampleTimes
                0x00036320                MdlStart
                0x00035bf4                look1_iu8lu16n16ts16Ds_FbqVATJM
                0x00035f3c                MdlUpdate
                0x00036314                MdlInitializeSizes
                0x0003631c                MdlInitialize
                0x00036350                TBRe_Mod
                0x0003634c                MdlTerminate
 .text          0x00036560       0x34 ./obj/main.o
                0x00036560                main
 .text          0x00036594       0xe0 ./obj/rtGetInf.o
                0x0003659c                rtGetInf
                0x0003660c                rtGetMinusInf
                0x00036604                rtGetMinusInfF
                0x00036594                rtGetInfF
 .text          0x00036674       0xbc ./obj/rtGetNaN.o
                0x00036674                rtGetNaNF
                0x000366c4                rtGetNaN
 .text          0x00036730      0x180 ./obj/rt_nonfinite.o
                0x0003689c                rtIsNaNF
                0x00036834                rtIsInfF
                0x000367ac                rtIsInf
                0x00036864                rtIsNaN
                0x00036730                rt_InitInfAndNaN
 .text          0x000368b0       0x20 ./obj/APP_DiagnosticsCAN.o
                0x000368b0                APP_DiagnosticsCAN
 .text          0x000368d0       0x24 ./obj/APP_MainTask.o
                0x000368d0                APP_MainTask
 .text          0x000368f4       0xe8 ./obj/APP_Tasks.o
                0x000368f4                APP_InitApp
 .text          0x000369dc      0x14c ../../prjgcc/MUXlab4/lib\libMUXlab4p.a(ADC_HAL.MUXLAB4p.o)
                0x00036a6c                ANA_IN_ReadAnaOutFeedback
                0x00036a04                ANA_IN_ReadValue
                0x00036ad8                ANA_IN_ReadVBatt
                0x000369dc                ANA_IN_Init
 .text          0x00036b28      0xf10 ../../prjgcc/MUXlab4/lib\libMUXlab4p.a(CAN_HAL.MUXLAB4p.o)
                0x0003731c                CAN_EnableRxFrame
                0x00036b28                CAN_LibInit
                0x00036e3c                CAN_InitEx
                0x00036b90                CAN_SelectResistor
                0x00037760                CAN_ReceiveMessageWithCrc
                0x00037288                CAN_InitFrameEx
                0x000370e0                CAN_EnableSmartGateway
                0x0003758c                CAN_Unpack
                0x00037728                CalcCrc
                0x00036cd4                CAN_Init
                0x00037104                CAN_EnableGateway
                0x00036edc                CAN_ChangeBauderate
                0x00037824                CAN_Pack
                0x000371e4                CAN_InitFrame
                0x000376d4                CAN_ReceiveMessage
                0x00037904                CAN_TransmitMessage
                0x00037968                CAN_TransmitMessageWithCrc
                0x00036fc4                CAN_InitGateway
                0x00037344                CAN_InitRxFrameWithMask
                0x00036f48                CAN_InitSmartGateway
                0x000371c4                CAN_GetRXCounters
 .text          0x00037a38     0x12d4 ../../prjgcc/MUXlab4/lib\libMUXlab4p.a(CAN_J1939.MUXLAB4p.o)
                0x00038318                J1939TP_AddRxObj
                0x00037c88                J1939_TransmitBAM
                0x00037a98                Start_transmitTP_PGN
                0x00038964                J1939_TP_RXDT2
                0x0003836c                J1939_TP_RXBAM
                0x00038c10                J1939_ReceiveTP_DT_Timeout
                0x00038be8                CAN_ReceiveLongJ1939Message
                0x00038508                J1939_TP_RXDT
                0x00037db0                J1939_TransmitTP_DT
                0x00037a38                INIT_J1939_TP
                0x00038758                J1939_TP_RXBAM2
                0x000380e4                J1939_InitRxTP
 .text          0x00038d0c      0x170 ../../prjgcc/MUXlab4/lib\libMUXlab4p.a(CCP_HAL.MUXLAB4p.o)
                0x00038d0c                CCP_Init
 .text          0x00038e7c      0x144 ../../prjgcc/MUXlab4/lib\libMUXlab4p.a(DAC_HAL.MUXLAB4p.o)
                0x00038e7c                setAnaOutputVoltage
                0x00038f44                initAnaOutputs
 .text          0x00038fc0      0x40c ../../prjgcc/MUXlab4/lib\libMUXlab4p.a(eTPU_HAL.MUXLAB4p.o)
                0x00039140                eTPU_PWMUpdate
                0x000391d0                eTPU_Configure10KFreqInputPPA
                0x00038fc0                eTPU_Irq
                0x00038fc4                eTPU_Init
                0x0003924c                eTPU_Configure100KFreqInput
                0x000392f8                eTPU_GetInputFreq
 .text          0x000393cc     0x1088 ../../prjgcc/MUXlab4/lib\libMUXlab4p.a(GPIO_HAL.MUXLAB4p.o)
                0x00039fd8                initPowerHold
                0x0003a01c                LED_Blink
                0x000395f4                initDigitalInput
                0x00039838                writeDigitalOutput
                0x00039f88                readDigitalOutputFeedback
                0x00039a24                initDigitalOutput
                0x0003a390                LED_Init
                0x00039528                applyDigitalInputsCfg
                0x00039f5c                readDigitalInput
                0x000393cc                initDigitalInputs
                0x00039d7c                writeDigitalOutputPWM
                0x00039cf0                initDigitalOutputs
 .text          0x0003a454      0x208 ../../prjgcc/MUXlab4/lib\libMUXlab4p.a(libMUXlab4.MUXLAB4p.o)
                0x0003a470                LIB_GetBoardSerialNumber
                0x0003a460                enableWatchDog
                0x0003a454                refreshWatchdog
                0x0003a4ec                LIB_Init
 .text          0x0003a65c      0x598 ../../prjgcc/MUXlab4/lib\libMUXlab4p.a(LIN_HAL.MUXLAB4p.o)
                0x0003a698                LinIf_Init
                0x0003aac4                LinIf_InitScheduleTable
                0x0003a65c                LinIf_LibInit
                0x0003ab98                LinIf_ExtractFrameSignals
                0x0003aa50                LinIf_InitUncondFrame
                0x0003a7d0                LinIf_MainFunction
                0x0003a9ec                LinIf_ScheduleRequest
                0x0003ab28                LinIf_UpdateFrameSignals
 .text          0x0003abf4      0x218 ../../prjgcc/MUXlab4/lib\libMUXlab4p.a(wakeup_HAL.MUXLAB4p.o)
                0x0003ae08                WKUP_Verify
                0x0003abf4                WKUP_GoToSleep
 .text          0x0003ae0c     0x1050 ../../prjgcc/MUXlab4/lib\libMUXlab4p.a(LIN.MUXLAB4p.o)
                0x0003b9c8                LIN_InputCaptureLIN2
                0x0003b238                LIN_ReceptionHandler
                0x0003b178                LIN_SendHeader
                0x0003bb7c                LIN_TimeoutLin1
                0x0003ae0c                LIN_EnableTransceivers
                0x0003b814                LIN_InputCaptureLIN1
                0x0003bd28                LIN_ESCIB_IRQ
                0x0003b0d8                LIN_SendBreak
                0x0003ae40                LIN_Init
                0x0003bbfc                LIN_ESCIA_IRQ
                0x0003b0ac                LIN_SendByte
                0x0003bbbc                LIN_TimeoutLin2
 .text          0x0003be5c      0xad8 ../../prjgcc/MUXlab4/lib\libMUXlab4p.a(OS_Core.MUXLAB4p.o)
                0x0003c714                OS_StartAll
                0x0003c1ac                OS_IsPeriodicTaskActive
                0x0003c354                OS_CreateEventTask
                0x0003c4f0                OS_DequeueEventTask
                0x0003bf08                OS_RemovePeriodicTask
                0x0003c910                OS_TickTimer
                0x0003c2c4                OS_ChangePeriodicTaskPeriod
                0x0003c580                OS_BackgroundTask
                0x0003c5e0                OS_InitOs
                0x0003be5c                OS_InsertPeriodicTask
                0x0003c1e8                OS_ActivatePeriodicTask
                0x0003c8fc                OS_ShutdownOs
                0x0003c17c                OS_CreatePeriodicTask
                0x0003c49c                OS_ActivateEventTask
                0x0003c90c                OS_Finalyse
                0x0003bf6c                OS_CreatePeriodicTaskPrio
                0x0003c460                OS_EnqueueEventTask
 .text          0x0003c934       0x20 ../../prjgcc/MUXlab4/lib\libMUXlab4p.a(OS_TimeBase.MUXLAB4p.o)
                0x0003c934                enableTimeBase
 .text          0x0003c954      0x86c ../../prjgcc/MUXlab4/lib\libMUXlab4p.a(SPI.MUXLAB4p.o)
                0x0003d13c                AD5601_WriteRegister
                0x0003cd88                MAX13036_EnableIRQ
                0x0003cbb8                SPI_ConfigCTAR
                0x0003cf98                MAX13036_IRQ
                0x0003cf30                MAX13036_ReadWrite
                0x0003d178                AD5628_TransmitData
                0x0003d060                MAX13036_ApplyCfg
                0x0003cde4                SPIB_EOQF
                0x0003c954                SPI_Init
 .text          0x0003d1c0       0x48 ../../prjgcc/MUXlab4/lib\libMUXlab4p.a(IRQ.MUXLAB4p.o)
                0x0003d1c0                IRQ_InitVectors
                0x0003d1d8                IRQ_InitINTC
 .text          0x0003d208      0x4a4 ../../prjgcc/MUXlab4/lib\libMUXlab4p.a(mpc5500_ccdcfg.MUXLAB4p.o)
                0x0003d208                cfg_XCLKS
                0x0003d654                cfg_mpc5500ccd
                0x0003d3d8                cfg_PCR
                0x0003d368                cfg_PCR_CTRL
                0x0003d574                cfg_CSn_BR
                0x0003d2ac                cfg_PCR_ADDR
                0x0003d228                cfg_PBRIDGE
                0x0003d680                cfg_EBI_mod
                0x0003d270                cfg_XBAR
                0x0003d5c4                cfg_EBI
                0x0003d2f4                cfg_PCR_DATA
                0x0003d5a4                cfg_CSn_OR
 .text          0x0003d6ac     0x2e90 ../../prjgcc/MUXlab4/lib\libMUXlab4p.a(USB.MUXLAB4p.o)
                0x0003fbf0                USB_MessageReset
                0x0003ed68                USB_MessageGetTaskName
                0x000402a4                USB_MessageGetMacAddr
                0x0003fa0c                USB_MessageBoardState
                0x0003d974                USB_Init
                0x0003fb44                USB_MessageEcho
                0x00040210                USB_MessageSetMacAddr
                0x0003ead4                USB_MessageResetTasksStats
                0x0003d920                USB_FifoSkipData
                0x0003d840                USB_FifoRead
                0x0003d8dc                USB_FifoReadDWord
                0x0003de0c                USB_SendErrorMessage
                0x0003ec2c                USB_MessageGetNumberOfTasks
                0x0003e5d8                USB_TxVariable
                0x0003de50                USB_SendPendingData
                0x0003e34c                USB_MessageRxVariable
                0x0003fef8                USB_MessageReadString
                0x0003d774                USBTrace_ConvertHexToStr
                0x0003d8b0                USB_FifoReadWord
                0x0003d938                USB_FifoClearRX
                0x0003d95c                USB_FifoClearTX
                0x0004017c                USB_MessageGetEthCfg
                0x00040338                USB_ProcessMessage
                0x0003e25c                USB_Read
                0x0003dfcc                USB_ProcessReceivedByte
                0x0003deb8                USB_MessageFlagAppli
                0x000400e8                USB_MessageSetEthCfg
                0x0003d6ac                USBTrace_ConvertIntToStr
                0x0003e870                USB_MessageTxVariableOnRequest
                0x0003ef8c                USB_MessageGetProfilingData
                0x0003fc4c                USB_MessageReadSerialNb
                0x0003d894                USB_FifoReadByte
                0x0003fdc4                USB_MessageReadStandalone
                0x0003e5c0                USB_ToolPresent
                0x0003dad8                USB_StrlLen
                0x0003dd28                USB_SendData
 .text          0x0004053c       0x20 ../../prjgcc/MUXlab4/lib\libMUXlab4p.a(tb.MUXLAB4p.o)
                0x00040554                readTimeBase32
                0x0004053c                readTimeBase
 .text          0x0004055c      0xf00 ../../prjgcc/MUXlab4/lib\libMUXlab4p.a(CCP.MUXLAB4p.o)
                0x00041250                CCP_Command
                0x00040bdc                ccpcommand
                0x00040560                ccpDisableNormalOperation
                0x00040b38                ccpBackground
                0x00040908                ccpDaq
                0x0004062c                ccpSendCrm
                0x00041414                ccp_DAQ_call
                0x0004055c                ccpUserBackground
                0x000406c8                ccpQueueWrite
                0x00040570                ccpSend
                0x000405cc                ccpSendDebug
                0x00040568                ccpGetPointer
                0x00041420                CCP_DAQ_EVENT
                0x000406b0                ccpQueueInit
                0x000413b0                ccpInit
                0x0004129c                ccpSendCallBack
 .text          0x0004145c      0x20c ../../prjgcc/MUXlab4/lib\libMUXlab4p.a(ADC.MUXLAB4p.o)
                0x0004152c                ADC_Init
                0x0004145c                ADC_Calibrate
                0x00041620                ADC_StartConversionPolling
 .text          0x00041668     0x14ac ../../prjgcc/MUXlab4/lib\libMUXlab4p.a(can.MUXLAB4p.o)
                0x000417e8                CAN_InitFlexCANController
                0x00041710                CAN_SetBauderate
                0x000421bc                CAN_InitBufferEth
                0x00042b04                CAN_flexCAN_D_IRQ
                0x00042aec                CAN_flexCAN_A_IRQ
                0x00041d34                CAN_ReleaseMessageBuffer
                0x00042708                CAN_IRQ
                0x00041e9c                CAN_TransmitCanObj
                0x0004245c                CAN_DisableInterrupt
                0x00041d7c                CAN_GetFreeMessageBuffer
                0x00041f44                CAN_UpdateEthCanFrame
                0x00042048                CAN_InitBuffer
                0x00041f4c                CAN_InitRxBufferWithMask
                0x00042af4                CAN_flexCAN_B_IRQ
                0x00042640                CAN_ReadMessageBuffer
                0x00042408                CAN_EnableInterrupt
                0x000426dc                CAN_GetStatusAndErrorCounters
                0x00042b0c                CAN_flexCAN_E_IRQ
                0x00041c34                CAN_InitPin
                0x00041f3c                CAN_TransmitEthCanObj
                0x00042afc                CAN_flexCAN_C_IRQ
                0x00042398                CAN_ActivateRXBuffer
                0x00041668                CAN_EnableTransceivers
 .text          0x00042b14      0x418 ../../prjgcc/MUXlab4/lib\libMUXlab4p.a(fifoCan.MUXLAB4p.o)
                0x00042e90                FIFO_CAN_ReadMessage
                0x00042c28                FIFO_CAN_WriteMessage
                0x00042d7c                FIFO_CAN_TransmitNextMessage
                0x00042b68                FIFO_CAN_TransmitCanObj
                0x00042b14                FIFO_CAN_Init
 .text          0x00042f2c      0x43c ../../prjgcc/MUXlab4/lib\libMUXlab4p.a(EMIOS.MUXLAB4p.o)
                0x00043044                EMIOS_RestartGeneralPurposeTimer
                0x00043294                EMIOS_ConfigInputCaptureTimer
                0x00042f2c                EMIOS_Init
                0x000430c4                EMIOS_ConfigPWMChannel
                0x00043150                EMIOS_UpdatePWM
                0x000431e0                EMIOS_ConfigInputPulseWidthMeasurementTimer
                0x000430a8                EMIOS_StopGeneralPurposeTimer
                0x00042f78                EMIOS_ConfigGeneralPurposeTimer
 .text          0x00043368      0xe1c ../../prjgcc/MUXlab4/lib\libMUXlab4p.a(etpu_util.MUXLAB4p.o)
                0x00043b60                fs_etpu_get_global_24
                0x00043cec                fs_etpu_get_chan_dma_flag
                0x00043b98                fs_etpu_set_interrupt_mask_a
                0x00043c40                fs_etpu_set_output_disable_mask_b
                0x00043d88                fs_etpu_get_idle_cnt_b
                0x0004395c                fs_etpu_set_chan_local_32
                0x000438f4                fs_timer_start
                0x00043af8                fs_etpu_set_global_32
                0x00043aa0                fs_etpu_get_chan_local_16
                0x00043ca8                fs_etpu_get_chan_interrupt_flag
                0x000436e8                fs_etpu_malloc
                0x000439e4                fs_etpu_set_chan_local_8
                0x0004409c                fs_etpu_coherent_write_32
                0x00043db0                fs_etpu_clear_idle_cnt_b
                0x000437cc                fs_etpu_data_ram
                0x00043b1c                fs_etpu_set_global_16
                0x00043d30                fs_etpu_get_global_exceptions
                0x00043b3c                fs_etpu_get_global_32
                0x00043a10                fs_etpu_get_chan_local_32
                0x00043568                fs_etpu2_init
                0x00043a6c                fs_etpu_get_chan_local_24
                0x00043acc                fs_etpu_get_chan_local_8
                0x00043a3c                fs_etpu_get_chan_local_24s
                0x0004390c                fs_etpu_malloc2
                0x00043dc8                fs_etpu_coherent_read_24
                0x00043b08                fs_etpu_set_global_24
                0x00043718                fs_etpu_chan_init
                0x00043ba8                fs_etpu_set_interrupt_mask_b
                0x00043bc8                fs_etpu_set_dma_mask_b
                0x00043b2c                fs_etpu_set_global_8
                0x00043d78                fs_etpu_get_idle_cnt_a
                0x00043cc4                fs_etpu_clear_chan_interrupt_flag
                0x000438b4                fs_etpu_dma_enable
                0x0004380c                fs_etpu_get_hsr
                0x00043d98                fs_etpu_clear_idle_cnt_a
                0x00043b4c                fs_etpu_get_global_24s
                0x00043894                fs_etpu_interrupt_disable
                0x00043d68                fs_etpu_get_global_error
                0x00043ec0                fs_etpu_coherent_read_32
                0x00043d4c                fs_etpu_clear_global_exceptions
                0x00043b88                fs_etpu_get_global_8
                0x00043398                fs_memset32
                0x000439b8                fs_etpu_set_chan_local_16
                0x00043bb8                fs_etpu_set_dma_mask_a
                0x00043368                fs_memcpy32
                0x00043fb4                fs_etpu_coherent_write_24
                0x00043850                fs_etpu_disable
                0x00043870                fs_etpu_interrupt_enable
                0x00043bd8                fs_etpu_set_output_disable_mask_a
                0x00043988                fs_etpu_set_chan_local_24
                0x00043d08                fs_etpu_clear_chan_dma_flag
                0x000437f4                fs_etpu_set_hsr
                0x000433c0                fs_etpu_init
                0x00043b78                fs_etpu_get_global_16
                0x00043828                fs_etpu_enable
                0x000438d4                fs_etpu_dma_disable
 .text          0x00044184      0x250 ../../prjgcc/MUXlab4/lib\libMUXlab4p.a(etpu_fpm.MUXLAB4p.o)
                0x000442d8                fs_etpu_fpm_get_count
                0x00044184                fs_etpu_fpm_init
                0x00044284                fs_etpu_fpm_update_window_size
                0x000442fc                fs_etpu_fpm_get_freq
 .text          0x000443d4      0x2d8 ../../prjgcc/MUXlab4/lib\libMUXlab4p.a(etpu_pwm.MUXLAB4p.o)
                0x000445cc                fs_etpu_pwm_update
                0x00044674                fs_etpu_pwm_get_freq
                0x00044510                fs_etpu_pwm_duty
                0x000443d4                fs_etpu_pwm_init
                0x0004455c                fs_etpu_pwm_duty_immed
 .text          0x000446ac      0x190 ../../prjgcc/MUXlab4/lib\libMUXlab4p.a(etpu_ppa.MUXLAB4p.o)
                0x000446ac                fs_etpu_ppa_init
                0x000447b0                fs_etpu_ppa_get_accumulation
                0x000447ec                fs_etpu_ppa_get_immediate
 .text          0x0004483c      0x2c0 ../../prjgcc/MUXlab4/lib\libMUXlab4p.a(flash.MUXLAB4p.o)
                0x0004483c                FLASH_Unlock
                0x000448a0                FLASH_Lock
                0x000448bc                FLASH_EraseBlock
                0x00044994                FLASH_Write
 .text          0x00044afc       0x34 ../../prjgcc/MUXlab4/lib\libMUXlab4p.a(GPIO.MUXLAB4p.o)
                0x00044afc                GPIO_InitInputPin
                0x00044b18                GPIO_InitOutputPin
 .text          0x00044b30        0x4 ../../prjgcc/MUXlab4/lib\libMUXlab4p.a(IntcIsrVectors.MUXLAB4p.o)
                0x00044b30                dummy
 .text          0x00044b34      0xc64 ../../prjgcc/MUXlab4/lib\libMUXlab4p.a(GasSensor.MUXLAB4p.o)
                0x00044ba4                GAS_GetLastMeasurementDiagnosis
                0x00045268                GAS_WriteRegisters
                0x00044cac                GAS_EnablePeriodicMeasurement
                0x00044e68                GAS_TimerIRQ
                0x00044fc8                GAS_ReadRegisters
                0x00044b8c                GAS_GetLastHumidMeasurement
                0x00044c00                GAS_Init
                0x00044b80                GAS_GetLastGas2Measurement
                0x00044b98                GAS_GetLastTempMeasurement
                0x00044b34                GAS_SetOnChipHeater
                0x00044b74                GAS_GetLastGas1Measurement
 .text          0x00045798      0x2bc ../../prjgcc/MUXlab4/lib\libMUXlab4p.a(SoftSPI.MUXLAB4p.o)
                0x00045804                SOFT_SPI_Write
                0x000458ec                SOFT_SPI_TimerIRQ
                0x00045798                SOFT_SPI_Init
 .text          0x00045a54      0x1f4 C:/Program Files (x86)/Nsi/powerpc-eabispe/bin/../lib/gcc/powerpc-eabispe/3.4.4/../../../../powerpc-eabispe/lib\libm.a(s_ceil.o)
                0x00045a54                ceil
 .text          0x00045c48      0x20c C:/Program Files (x86)/Nsi/powerpc-eabispe/bin/../lib/gcc/powerpc-eabispe/3.4.4/../../../../powerpc-eabispe/lib\libm.a(s_floor.o)
                0x00045c48                floor
 .text          0x00045e54       0x88 C:/Program Files (x86)/Nsi/powerpc-eabispe/bin/../lib/gcc/powerpc-eabispe/3.4.4\libgcc.a(_fixunsdfsi.o)
                0x00045e54                __fixunsdfsi
 .text          0x00045edc      0x43c C:/Program Files (x86)/Nsi/powerpc-eabispe/bin/../lib/gcc/powerpc-eabispe/3.4.4\libgcc.a(_udivdi3.o)
                0x00045edc                __udivdi3
 .text          0x00046318      0x42c C:/Program Files (x86)/Nsi/powerpc-eabispe/bin/../lib/gcc/powerpc-eabispe/3.4.4\libgcc.a(_umoddi3.o)
                0x00046318                __umoddi3
 .text          0x00046744       0x54 C:/Program Files (x86)/Nsi/powerpc-eabispe/bin/../lib/gcc/powerpc-eabispe/3.4.4\libgcc.a(_sf_to_df.o)
                0x00046744                __extendsfdf2
 .text          0x00046798      0x444 C:/Program Files (x86)/Nsi/powerpc-eabispe/bin/../lib/gcc/powerpc-eabispe/3.4.4\libgcc.a(_addsub_df.o)
                0x00046af0                __adddf3
                0x00046b60                __subdf3
 .text          0x00046bdc      0x490 C:/Program Files (x86)/Nsi/powerpc-eabispe/bin/../lib/gcc/powerpc-eabispe/3.4.4\libgcc.a(_mul_df.o)
                0x00046bdc                __muldf3
 .text          0x0004706c      0x244 C:/Program Files (x86)/Nsi/powerpc-eabispe/bin/../lib/gcc/powerpc-eabispe/3.4.4\libgcc.a(_div_df.o)
                0x0004706c                __divdf3
 .text          0x000472b0       0xa8 C:/Program Files (x86)/Nsi/powerpc-eabispe/bin/../lib/gcc/powerpc-eabispe/3.4.4\libgcc.a(_eq_df.o)
                0x000472b0                __eqdf2
 .text          0x00047358       0xa8 C:/Program Files (x86)/Nsi/powerpc-eabispe/bin/../lib/gcc/powerpc-eabispe/3.4.4\libgcc.a(_ne_df.o)
                0x00047358                __nedf2
 .text          0x00047400       0xa8 C:/Program Files (x86)/Nsi/powerpc-eabispe/bin/../lib/gcc/powerpc-eabispe/3.4.4\libgcc.a(_gt_df.o)
                0x00047400                __gtdf2
 .text          0x000474a8       0xa8 C:/Program Files (x86)/Nsi/powerpc-eabispe/bin/../lib/gcc/powerpc-eabispe/3.4.4\libgcc.a(_ge_df.o)
                0x000474a8                __gedf2
 .text          0x00047550       0xa8 C:/Program Files (x86)/Nsi/powerpc-eabispe/bin/../lib/gcc/powerpc-eabispe/3.4.4\libgcc.a(_lt_df.o)
                0x00047550                __ltdf2
 .text          0x000475f8      0x128 C:/Program Files (x86)/Nsi/powerpc-eabispe/bin/../lib/gcc/powerpc-eabispe/3.4.4\libgcc.a(_si_to_df.o)
                0x000475f8                __floatsidf
 .text          0x00047720       0xac C:/Program Files (x86)/Nsi/powerpc-eabispe/bin/../lib/gcc/powerpc-eabispe/3.4.4\libgcc.a(_df_to_si.o)
                0x00047720                __fixdfsi
 .text          0x000477cc       0x38 C:/Program Files (x86)/Nsi/powerpc-eabispe/bin/../lib/gcc/powerpc-eabispe/3.4.4\libgcc.a(_make_df.o)
                0x000477cc                __make_dp
 .text          0x00047804       0x68 C:/Program Files (x86)/Nsi/powerpc-eabispe/bin/../lib/gcc/powerpc-eabispe/3.4.4\libgcc.a(_df_to_sf.o)
                0x00047804                __truncdfsf2
 .text          0x0004786c       0xb4 C:/Program Files (x86)/Nsi/powerpc-eabispe/bin/../lib/gcc/powerpc-eabispe/3.4.4\libgcc.a(eabi.o)
                0x000478e8                __eabi_uconvert
                0x000478b4                __eabi_convert
 .text          0x00047920       0x50 C:/Program Files (x86)/Nsi/powerpc-eabispe/bin/../lib/gcc/powerpc-eabispe/3.4.4\libgcc.a(_lshrdi3.o)
                0x00047920                __lshrdi3
 .text          0x00047970       0xc8 C:/Program Files (x86)/Nsi/powerpc-eabispe/bin/../lib/gcc/powerpc-eabispe/3.4.4\libgcc.a(_unpack_sf.o)
                0x00047970                __unpack_f
 .text          0x00047a38       0x34 C:/Program Files (x86)/Nsi/powerpc-eabispe/bin/../lib/gcc/powerpc-eabispe/3.4.4\libgcc.a(_make_sf.o)
                0x00047a38                __make_fp
 .text          0x00047a6c      0x248 C:/Program Files (x86)/Nsi/powerpc-eabispe/bin/../lib/gcc/powerpc-eabispe/3.4.4\libgcc.a(_pack_df.o)
                0x00047a6c                __pack_d
 .text          0x00047cb4      0x158 C:/Program Files (x86)/Nsi/powerpc-eabispe/bin/../lib/gcc/powerpc-eabispe/3.4.4\libgcc.a(_unpack_df.o)
                0x00047cb4                __unpack_d
 .text          0x00047e0c      0x15c C:/Program Files (x86)/Nsi/powerpc-eabispe/bin/../lib/gcc/powerpc-eabispe/3.4.4\libgcc.a(_fpcmp_parts_df.o)
                0x00047e0c                __fpcmp_parts_d
 .text          0x00047f68       0x50 C:/Program Files (x86)/Nsi/powerpc-eabispe/bin/../lib/gcc/powerpc-eabispe/3.4.4\libgcc.a(_ashldi3.o)
                0x00047f68                __ashldi3
 .text          0x00047fb8      0x13c C:/Program Files (x86)/Nsi/powerpc-eabispe/bin/../lib/gcc/powerpc-eabispe/3.4.4\libgcc.a(_pack_sf.o)
                0x00047fb8                __pack_f
 .text          0x000480f4       0xb4 C:/Program Files (x86)/Nsi/powerpc-eabispe/bin/../lib/gcc/powerpc-eabispe/3.4.4/../../../../powerpc-eabispe/lib\libc.a(memcpy.o)
                0x000480f4                memcpy
 .text          0x000481a8       0xac C:/Program Files (x86)/Nsi/powerpc-eabispe/bin/../lib/gcc/powerpc-eabispe/3.4.4/../../../../powerpc-eabispe/lib\libc.a(memset.o)
                0x000481a8                memset
 .text          0x00048254       0x68 C:/Program Files (x86)/Nsi/powerpc-eabispe/bin/../lib/gcc/powerpc-eabispe/3.4.4/../../../../powerpc-eabispe/lib\libc.a(strlen.o)
                0x00048254                strlen
 .text          0x000482bc      0x1e0 C:/Program Files (x86)/Nsi/powerpc-eabispe/bin/../lib/gcc/powerpc-eabispe/3.4.4/crtsavres.o
                0x000483b0                _restgpr_18
                0x00048488                _restgpr_31_x
                0x000483d0                _restgpr_26
                0x0004833c                _savegpr_27
                0x000483c8                _restgpr_24
                0x00048468                _restgpr_23_x
                0x00048360                _restfpr_17
                0x000483a4                _restgpr_15
                0x00048418                _restfpr_25_x
                0x00048448                _restgpr_15_x
                0x00048378                _restfpr_23
                0x000483cc                _restgpr_25
                0x00048308                _savegpr_14
                0x000483fc                _restfpr_18_x
                0x000482c4                _savefpr_16
                0x000483e4                _restgpr_31
                0x000483f4                _restfpr_16_x
                0x00048458                _restgpr_19_x
                0x000482d8                _savefpr_21
                0x0004830c                _savegpr_15
                0x00048484                _restgpr_30_x
                0x00048450                _restgpr_17_x
                0x000482f4                _savefpr_28
                0x00048480                _restgpr_29_x
                0x00048388                _restfpr_27
                0x00048420                _restfpr_27_x
                0x00048430                _restfpr_31_x
                0x00048368                _restfpr_19
                0x00048414                _restfpr_24_x
                0x00048340                _savegpr_28
                0x00048338                _savegpr_26
                0x000483a0                _restgpr_14
                0x000482c0                _savefpr_15
                0x000482f0                _savefpr_27
                0x000483f0                _restfpr_15_x
                0x00048358                _restfpr_15
                0x00048410                _restfpr_23_x
                0x000482dc                _savefpr_22
                0x00048370                _restfpr_21
                0x000483ec                _restfpr_14_x
                0x000483bc                _restgpr_21
                0x000482c8                _savefpr_17
                0x00048380                _restfpr_25
                0x00048374                _restfpr_22
                0x00048464                _restgpr_22_x
                0x000482bc                _savefpr_14
                0x00048474                _restgpr_26_x
                0x0004847c                _restgpr_28_x
                0x00048334                _savegpr_25
                0x0004842c                _restfpr_30_x
                0x00048470                _restgpr_25_x
                0x0004846c                _restgpr_24_x
                0x00048324                _savegpr_21
                0x000482d4                _savefpr_20
                0x000483d8                _restgpr_28
                0x00048354                _restfpr_14
                0x000482f8                _savefpr_29
                0x000483b4                _restgpr_19
                0x000483b8                _restgpr_20
                0x00048454                _restgpr_18_x
                0x00048408                _restfpr_21_x
                0x00048300                _savefpr_31
                0x00048320                _savegpr_20
                0x000483dc                _restgpr_29
                0x00048318                _savegpr_18
                0x000482d0                _savefpr_19
                0x0004838c                _restfpr_28
                0x00048384                _restfpr_26
                0x00048314                _savegpr_17
                0x00048424                _restfpr_28_x
                0x0004836c                _restfpr_20
                0x000483f8                _restfpr_17_x
                0x000482fc                _savefpr_30
                0x000482e8                _savefpr_25
                0x0004834c                _savegpr_31
                0x0004832c                _savegpr_23
                0x000482e4                _savefpr_24
                0x00048428                _restfpr_29_x
                0x000482cc                _savefpr_18
                0x00048344                _savegpr_29
                0x00048400                _restfpr_19_x
                0x000483d4                _restgpr_27
                0x000483c0                _restgpr_22
                0x00048330                _savegpr_24
                0x0004841c                _restfpr_26_x
                0x00048364                _restfpr_18
                0x0004831c                _savegpr_19
                0x0004835c                _restfpr_16
                0x00048444                _restgpr_14_x
                0x000482e0                _savefpr_23
                0x00048394                _restfpr_30
                0x00048310                _savegpr_16
                0x00048404                _restfpr_20_x
                0x00048390                _restfpr_29
                0x0004837c                _restfpr_24
                0x00048348                _savegpr_30
                0x00048460                _restgpr_21_x
                0x000483e0                _restgpr_30
                0x0004840c                _restfpr_22_x
                0x0004844c                _restgpr_16_x
                0x00048478                _restgpr_27_x
                0x00048328                _savegpr_22
                0x000483a8                _restgpr_16
                0x000483c4                _restgpr_23
                0x000483ac                _restgpr_17
                0x000482ec                _savefpr_26
                0x0004845c                _restgpr_20_x
                0x00048398                _restfpr_31
 *(.text.*)
 *(.gnu.warning)
 *(.gnu.linkonce.t*)
                0x0004849c                __eabi = .
                0x0004849c        0x4 LONG 0x4e800020

.fini
 *(.fini)

.flash_data     0x000484a0        0xc
 *(.flash_data)
 .flash_data    0x000484a0        0xc ./obj/mpc5500_asmcfg.o
                0x000484a0                cfg_SRAM_LOAD

.rodata         0x000484b0     0x3dd6
 *(.rodata)
 .rodata        0x000484b0      0x100 ./obj/CRCJ1850.o
 .rodata        0x000485b0      0x5f4 ./obj/FlashData.o
                0x000485b0                tab_rx_usb_size
                0x00048a5c                sModelDescription
                0x00048b9c                sModelVersion
                0x00048a44                sModelDate
                0x00048b5c                sModelName
                0x00048b90                sIncrementalVersion
                0x000485b4                tab_rx_usb
 .rodata        0x00048ba4        0x4 ./obj/TBRe_Mod.o
                0x00048ba4                TBRe_Mod_M
 .rodata        0x00048ba8        0xc ./obj/TBRe_Mod_data.o
                0x00048ba8                TBRe_Mod_ConstP
                0x00048bb2                TBRe_Mod_ConstB
 .rodata        0x00048bb4       0x90 ./obj/__start.o
 .rodata        0x00048c44       0x90 ./obj/mpc5500_asmcfg.o
 .rodata        0x00048cd4       0x1c ./obj/APP_Tasks.o
                0x00048ce0                Name_task_DiagnosticsCAN
                0x00048cd4                Name_task_MainTask
 .rodata        0x00048cf0      0x114 ../../prjgcc/MUXlab4/lib\libMUXlab4p.a(CAN_HAL.MUXLAB4p.o)
 .rodata        0x00048e04     0x3008 ../../prjgcc/MUXlab4/lib\libMUXlab4p.a(eTPU_HAL.MUXLAB4p.o)
                0x0004be04                etpu_globals
                0x00048e04                etpu_code
 .rodata        0x0004be0c      0x148 ../../prjgcc/MUXlab4/lib\libMUXlab4p.a(GPIO_HAL.MUXLAB4p.o)
 .rodata        0x0004bf54       0x20 ../../prjgcc/MUXlab4/lib\libMUXlab4p.a(libMUXlab4.MUXLAB4p.o)
                0x0004bf54                sLibraryVers
 .rodata        0x0004bf74       0x64 ../../prjgcc/MUXlab4/lib\libMUXlab4p.a(LIN.MUXLAB4p.o)
                0x0004bf74                emiosInputCaptureChannels
                0x0004bf78                emiosTimeoutChannels
 .rodata        0x0004bfd8       0xbc ../../prjgcc/MUXlab4/lib\libMUXlab4p.a(USB.MUXLAB4p.o)
 .rodata        0x0004c094       0x90 ../../prjgcc/MUXlab4/lib\libMUXlab4p.a(CCP.MUXLAB4p.o)
 .rodata        0x0004c124       0x14 ../../prjgcc/MUXlab4/lib\libMUXlab4p.a(can.MUXLAB4p.o)
 .rodata        0x0004c138       0x78 ../../prjgcc/MUXlab4/lib\libMUXlab4p.a(GasSensor.MUXLAB4p.o)
 .rodata        0x0004c1b0       0x18 C:/Program Files (x86)/Nsi/powerpc-eabispe/bin/../lib/gcc/powerpc-eabispe/3.4.4\libgcc.a(_thenan_df.o)
                0x0004c1b0                __thenan_df
 *(.rodata.*)
 .rodata.str1.4
                0x0004c1c8       0x25 ../../prjgcc/MUXlab4/lib\libMUXlab4p.a(CAN_J1939.MUXLAB4p.o)
                                 0x28 (size before relaxing)
 *fill*         0x0004c1ed        0x3 00
 .rodata.str1.4
                0x0004c1f0       0x1e ../../prjgcc/MUXlab4/lib\libMUXlab4p.a(CCP_HAL.MUXLAB4p.o)
                                 0x20 (size before relaxing)
 *fill*         0x0004c20e        0x2 00
 .rodata.str1.4
                0x0004c210       0x12 ../../prjgcc/MUXlab4/lib\libMUXlab4p.a(LIN_HAL.MUXLAB4p.o)
                                 0x14 (size before relaxing)
 *fill*         0x0004c222        0x2 00
 .rodata.str1.4
                0x0004c224       0x44 ../../prjgcc/MUXlab4/lib\libMUXlab4p.a(OS_Core.MUXLAB4p.o)
 .rodata.str1.4
                0x0004c268       0x1e ../../prjgcc/MUXlab4/lib\libMUXlab4p.a(GasSensor.MUXLAB4p.o)
                                 0x20 (size before relaxing)
 *(.gnu.linkonce.r*)

.rodata1
 *(.rodata1)

.PPC.EMB.apuinfo
                0x0004c286       0x20
 *(.PPC.EMB.apuinfo)
 .PPC.EMB.apuinfo
                0x0004c286       0x18 ./obj/DiagnosticsCAN.o
 .PPC.EMB.apuinfo
                0x0004c29e       0x1c ./obj/MainTask.o
 .PPC.EMB.apuinfo
                0x0004c2ba       0x1c ./obj/rt_nonfinite.o
 .PPC.EMB.apuinfo
                0x0004c2d6       0x18 ./obj/mpc5500_asmcfg.o
 .PPC.EMB.apuinfo
                0x0004c2ee       0x18 ../../prjgcc/MUXlab4/lib\libMUXlab4p.a(CAN_HAL.MUXLAB4p.o)
 .PPC.EMB.apuinfo
                0x0004c306       0x18 ../../prjgcc/MUXlab4/lib\libMUXlab4p.a(DAC_HAL.MUXLAB4p.o)
 .PPC.EMB.apuinfo
                0x0004c31e       0x18 ../../prjgcc/MUXlab4/lib\libMUXlab4p.a(USB.MUXLAB4p.o)
 .PPC.EMB.apuinfo
                0x0004c336       0x18 ../../prjgcc/MUXlab4/lib\libMUXlab4p.a(CCP.MUXLAB4p.o)
 .PPC.EMB.apuinfo
                0x0004c34e       0x18 ../../prjgcc/MUXlab4/lib\libMUXlab4p.a(can.MUXLAB4p.o)
 .PPC.EMB.apuinfo
                0x0004c366       0x18 ../../prjgcc/MUXlab4/lib\libMUXlab4p.a(EMIOS.MUXLAB4p.o)
 .PPC.EMB.apuinfo
                0x0004c37e       0x18 ../../prjgcc/MUXlab4/lib\libMUXlab4p.a(etpu_util.MUXLAB4p.o)
 .PPC.EMB.apuinfo
                0x0004c396       0x18 ../../prjgcc/MUXlab4/lib\libMUXlab4p.a(GasSensor.MUXLAB4p.o)
 .PPC.EMB.apuinfo
                0x0004c3ae       0x18 C:/Program Files (x86)/Nsi/powerpc-eabispe/bin/../lib/gcc/powerpc-eabispe/3.4.4\libgcc.a(_umoddi3.o)
 .PPC.EMB.apuinfo
                0x0004c3c6       0x18 C:/Program Files (x86)/Nsi/powerpc-eabispe/bin/../lib/gcc/powerpc-eabispe/3.4.4\libgcc.a(_addsub_df.o)
 .PPC.EMB.apuinfo
                0x0004c3de       0x18 C:/Program Files (x86)/Nsi/powerpc-eabispe/bin/../lib/gcc/powerpc-eabispe/3.4.4\libgcc.a(_df_to_si.o)
 .PPC.EMB.apuinfo
                0x0004c3f6       0x18 C:/Program Files (x86)/Nsi/powerpc-eabispe/bin/../lib/gcc/powerpc-eabispe/3.4.4\libgcc.a(_df_to_sf.o)
 .PPC.EMB.apuinfo
                0x0004c40e       0x18 C:/Program Files (x86)/Nsi/powerpc-eabispe/bin/../lib/gcc/powerpc-eabispe/3.4.4\libgcc.a(_pack_df.o)
 .PPC.EMB.apuinfo
                0x0004c426       0x18 C:/Program Files (x86)/Nsi/powerpc-eabispe/bin/../lib/gcc/powerpc-eabispe/3.4.4\libgcc.a(_fpcmp_parts_df.o)
 .PPC.EMB.apuinfo
                0x0004c43e       0x18 C:/Program Files (x86)/Nsi/powerpc-eabispe/bin/../lib/gcc/powerpc-eabispe/3.4.4\libgcc.a(_pack_sf.o)

.isrvectbl      0x0004c800      0x5a4
 *(.isrvectbl)
 .isrvectbl     0x0004c800      0x5a4 ../../prjgcc/MUXlab4/lib\libMUXlab4p.a(IntcIsrVectors.MUXLAB4p.o)
                0x0004c800                IntcIsrVectorTable

.xcptn          0x0004cdb0       0xf0
 *(.xcptn)
 .xcptn         0x0004cdb0       0xf0 ../../prjgcc/MUXlab4/lib\libMUXlab4p.a(handlers.MUXLAB4p.o)
                0x0004cdb0                IVOR4Handler
 *(.eh_frame)
                0x0004cea0                etext = .
                0x0004cea0                _etext = .
                0x0004cea0                __etext = .
                0x0004cea0                NEXT_LOAD_ADDR = .
                0x0004cea0                __DATA_ROM = .

.PPC.EMB.sdata2
                0x40000000        0x0 load address 0x2001f000
                0x40000000                _SDA2_BASE_ = .
                0x40000000                __SDATA2_START__ = .
 *(.PPC.EMB.sdata2)
                0x2001f000                NEXT_LOAD_ADDR = (NEXT_LOAD_ADDR + SIZEOF (.PPC.EMB.sdata2))

.sdata2         0x40000000        0x0 load address 0x2001f000
 *(.sdata2)
 *(.sdata2.*)
                0x2001f000                NEXT_LOAD_ADDR = (NEXT_LOAD_ADDR + SIZEOF (.sdata2))

.PPC.EMB.sbss2  0x40000000        0x0 load address 0x2001f000
 *(.PPC.EMB.sbss2)
                0x2001f000                NEXT_LOAD_ADDR = (NEXT_LOAD_ADDR + SIZEOF (.PPC.EMB.sbss2))

.sbss2          0x40000000        0x0 load address 0x2001f000
 *(.sbss2)
                0x40000000                __SBSS2_END__ = .
                0x2001f000                NEXT_LOAD_ADDR = (NEXT_LOAD_ADDR + SIZEOF (.sbss2))

.data           0x40000000       0xb4 load address 0x2001f000
 *(.data)
 .data          0x40000000        0xc ./obj/MainTask.o
 .data          0x4000000c        0x1 ./obj/APP_DiagnosticsCAN.o
                0x4000000c                DiagnosticsCANId
 .data          0x4000000d        0x1 ./obj/APP_MainTask.o
                0x4000000d                MainTaskId
 *fill*         0x4000000e        0x2 00
 .data          0x40000010        0x4 ../../prjgcc/MUXlab4/lib\libMUXlab4p.a(CAN_J1939.MUXLAB4p.o)
                0x40000010                index_search
 .data          0x40000014       0x10 ../../prjgcc/MUXlab4/lib\libMUXlab4p.a(DAC_HAL.MUXLAB4p.o)
 .data          0x40000024       0x38 ../../prjgcc/MUXlab4/lib\libMUXlab4p.a(eTPU_HAL.MUXLAB4p.o)
                0x4000004c                cfgFreq100K
                0x40000024                my_etpu_config
 .data          0x4000005c       0x14 ../../prjgcc/MUXlab4/lib\libMUXlab4p.a(libMUXlab4.MUXLAB4p.o)
                0x40000060                fs_etpu_data_ram_end
                0x4000006c                eTPU
                0x4000005c                fs_etpu_data_ram_ext
                0x40000064                fs_etpu_data_ram_start
                0x40000068                fs_etpu_code_start
 .data          0x40000070        0x1 ../../prjgcc/MUXlab4/lib\libMUXlab4p.a(USB.MUXLAB4p.o)
                0x40000070                u08TxDebugTimeout
 *fill*         0x40000071        0x3 00
 .data          0x40000074       0x18 ../../prjgcc/MUXlab4/lib\libMUXlab4p.a(CCP.MUXLAB4p.o)
                0x40000080                DEBUT_RAM_SAUVEGARDE
                0x4000007c                FIN_RAM_SAUVEGARDE
                0x40000074                FIN_RAM_EXTERNE
                0x40000078                DEBUT_RAM_EXTERNE
                0x40000084                ccpStationId
 .data          0x4000008c       0x18 ../../prjgcc/MUXlab4/lib\libMUXlab4p.a(can.MUXLAB4p.o)
                0x4000008c                flexCanAddress
 .data          0x400000a4        0xc ../../prjgcc/MUXlab4/lib\libMUXlab4p.a(GasSensor.MUXLAB4p.o)
                0x400000aa                u16LastGas2Measurement
                0x400000a8                u16LastHumidMeasurement
                0x400000a6                u16LastTempMeasurement
                0x400000ac                u16LastGas1Measurement
                0x400000a4                u16LastDiagnosis
 .data          0x400000b0        0x4 C:/Program Files (x86)/Nsi/powerpc-eabispe/bin/../lib/gcc/powerpc-eabispe/3.4.4\libgcc.a(eabi.o)
 *(.data.*)
 *(.gnu.linkonce.d*)
                0x2001f0b4                NEXT_LOAD_ADDR = (NEXT_LOAD_ADDR + SIZEOF (.data))

.RAM_Code       0x400000b4        0x0 load address 0x2001f000
 *(.RAM_Code)
                0x2001f000                NEXT_LOAD_ADDR = (NEXT_LOAD_ADDR + SIZEOF (.RAM_Code))

.data1          0x400000b4        0x0 load address 0x2001f000
 *(.data1)
                0x2001f000                NEXT_LOAD_ADDR = (NEXT_LOAD_ADDR + SIZEOF (.data1))
                0x400000b4                PROVIDE (_GOT_START_, .)

.got            0x400000b4        0x0 load address 0x2001f000
 *(.got)
                0x2001f000                NEXT_LOAD_ADDR = (NEXT_LOAD_ADDR + SIZEOF (.got))

.got.plt        0x400000b4        0x0 load address 0x2001f000
 *(.got.plt)
                0x400000b4                PROVIDE (_GOT_END_, .)
                0x2001f000                NEXT_LOAD_ADDR = (NEXT_LOAD_ADDR + SIZEOF (.got.plt))

.got1           0x400000b4        0x0 load address 0x2001f000
 *(.got1)
                0x2001f000                NEXT_LOAD_ADDR = (NEXT_LOAD_ADDR + SIZEOF (.got1))
                0x400000b4                PROVIDE (_GOT2_START_, .)

.got2           0x400000b4       0x1c load address 0x2001f000
 *(.got2)
 .got2          0x400000b4       0x1c C:/Program Files (x86)/Nsi/powerpc-eabispe/bin/../lib/gcc/powerpc-eabispe/3.4.4\libgcc.a(eabi.o)
                0x2001f01c                NEXT_LOAD_ADDR = (NEXT_LOAD_ADDR + SIZEOF (.got2))
                0x400000d0                PROVIDE (__CTOR_LIST__, .)

.ctors          0x400000d0        0x0 load address 0x2001f000
 *(.ctors)
                0x2001f000                NEXT_LOAD_ADDR = (NEXT_LOAD_ADDR + SIZEOF (.ctors))
                0x400000d0                PROVIDE (__CTOR_END__, .)
                0x400000d0                PROVIDE (__DTOR_LIST__, .)

.dtors          0x400000d0        0x0 load address 0x2001f000
 *(.dtors)
                0x2001f000                NEXT_LOAD_ADDR = (NEXT_LOAD_ADDR + SIZEOF (.dtors))
                0x400000d0                PROVIDE (__DTOR_END__, .)
                0x400000d0                PROVIDE (_FIXUP_START_, .)

.fixup          0x400000d0        0x0 load address 0x2001f000
 *(.fixup)
                0x2001f000                NEXT_LOAD_ADDR = (NEXT_LOAD_ADDR + SIZEOF (.fixup))
                0x400000d0                PROVIDE (_FIXUP_END_, .)
                0x400000d0                PROVIDE (_GOT2_END_, .)

.dynamic        0x400000d0        0x0 load address 0x2001f000
 *(.dynamic)
                0x2001f000                NEXT_LOAD_ADDR = (NEXT_LOAD_ADDR + SIZEOF (.dynamic))

.plt            0x400000d0        0x0 load address 0x2001f000
 *(.plt)
                0x2001f000                NEXT_LOAD_ADDR = (NEXT_LOAD_ADDR + SIZEOF (.plt))
                0x400000d0                __SDATA_ROM = .

.sdata          0x400000d0        0x0 load address 0x2001f000
                0x400000d0                __SDATA_START__ = .
                0x400000d0                _SDA_BASE_ = .
 *(.sdata)
 *(.sdata.*)
                0x2001f000                NEXT_LOAD_ADDR = (NEXT_LOAD_ADDR + SIZEOF (.sdata))

.PPC.EMB.sdata0
                0x400000d0        0x0 load address 0x2001f000
                0x400000d0                __SDATA_END__ = .
                0x400000d0                __DATA_ROM_END = .
                0x400000d0                edata = .
                0x400000d0                _edata = .
                0x400000d0                __edata = .

.sbss           0x400000d0      0x122
                0x400000d0                PROVIDE (__sbss_start, .)
                0x400000d0                PROVIDE (___sbss_start, .)
 *(.sbss)
 .sbss          0x400000d0        0x5 ./obj/DiagnosticsCAN.o
                0x400000d0                SignalLentgh
                0x400000d1                Point_CRC_data
                0x400000d2                Point_CRC_data2
                0x400000d3                maskPWMUsedByModel
                0x400000d4                u08BypassPWMMask
 *fill*         0x400000d5        0x3 00
 .sbss          0x400000d8       0x24 ./obj/rt_nonfinite.o
                0x400000d8                rtNaNF
                0x400000dc                rtInfF
                0x400000e0                rtInf
                0x400000e8                rtNaN
                0x400000f0                rtMinusInf
                0x400000f8                rtMinusInfF
 .sbss          0x400000fc       0x1e ../../prjgcc/MUXlab4/lib\libMUXlab4p.a(CAN_J1939.MUXLAB4p.o)
                0x400000fc                num_packet
                0x40000100                packet_size
                0x40000104                J1939TP_BAMRX
                0x40000108                J1939TP_DTRX
                0x4000010c                TP_status
                0x40000110                J1939TP_DTRX2
                0x40000114                J1939TP_BAMRX2
                0x40000118                num_sequence
 *fill*         0x4000011a        0x2 00
 .sbss          0x4000011c        0x4 ../../prjgcc/MUXlab4/lib\libMUXlab4p.a(eTPU_HAL.MUXLAB4p.o)
                0x4000011c                fs_free_param
 .sbss          0x40000120        0x8 ../../prjgcc/MUXlab4/lib\libMUXlab4p.a(libMUXlab4.MUXLAB4p.o)
                0x40000120                hardVersion
                0x40000124                boardType
 .sbss          0x40000128        0x2 ../../prjgcc/MUXlab4/lib\libMUXlab4p.a(LIN_HAL.MUXLAB4p.o)
                0x40000128                u08NbScheduleTables
 *fill*         0x4000012a        0x2 00
 .sbss          0x4000012c       0x34 ../../prjgcc/MUXlab4/lib\libMUXlab4p.a(LIN.MUXLAB4p.o)
                0x4000012c                u32BreakLength
                0x40000134                u32THeaderMaxLength
                0x4000013c                u32THeaderTimeout
                0x40000144                u32BreakDetectionTreshold
                0x4000014c                u16BauderateSave
                0x40000150                breakDetectionState
                0x40000158                u32Tbit
 .sbss          0x40000160        0x9 ../../prjgcc/MUXlab4/lib\libMUXlab4p.a(SPI.MUXLAB4p.o)
                0x40000160                u16Max13036WordRegister
                0x40000168                u08CurrentMAX13036
 *fill*         0x40000169        0x3 00
 .sbss          0x4000016c       0x11 ../../prjgcc/MUXlab4/lib\libMUXlab4p.a(USB.MUXLAB4p.o)
                0x4000016c                currentMessageHeader
                0x40000172                u08TaskSendUSBErrorMsg
                0x40000173                USBPendingTaskActivated
                0x40000174                u08ChecksumTx
                0x40000175                u08TaskSendUSBPendingData
                0x40000178                USBState
                0x4000017c                u08TaskProcessUSBMsg
 *fill*         0x4000017d        0x3 00
 .sbss          0x40000180       0x18 ../../prjgcc/MUXlab4/lib\libMUXlab4p.a(CCP.MUXLAB4p.o)
                0x40000180                receive_buffer
                0x40000188                return_code
                0x4000018c                debug_buffer
                0x40000194                CCP_channel
 .sbss          0x40000198       0x21 ../../prjgcc/MUXlab4/lib\libMUXlab4p.a(can.MUXLAB4p.o)
                0x40000198                nbRxFramesUsedByModel
                0x400001a0                canErrSaveHS
                0x400001a8                nbTxFramesUsedByModel
                0x400001b0                canErrSaveLS
                0x400001b4                smartGwEnabled
 *fill*         0x400001b9        0x3 00
 .sbss          0x400001bc       0x2a ../../prjgcc/MUXlab4/lib\libMUXlab4p.a(GasSensor.MUXLAB4p.o)
                0x400001bc                u16ResolutionRegToWrite
                0x400001c0                pResolutionRegToRead
                0x400001c4                gasSensorState
                0x400001c8                pHwConfigRegToRead
                0x400001cc                u16HwConfigRegToWrite
                0x400001d0                pRhSetupRegToRead
                0x400001d4                u08HeatValue
                0x400001d8                pUserRegToRead
                0x400001dc                u16GasSetupRegToWrite
                0x400001de                u08GasTaskId
                0x400001df                u08CurrentReadAddress
                0x400001e0                pGasSetupRegToRead
                0x400001e4                u16RhSetupRegToWrite
 *fill*         0x400001e6        0x2 00
 .sbss          0x400001e8        0xa ../../prjgcc/MUXlab4/lib\libMUXlab4p.a(SoftSPI.MUXLAB4p.o)
                0x400001e8                u32SoftSpiShiftRegister
                0x400001ec                softSpiCurrentState
                0x400001f0                u08NbRemainingBits
                0x400001f1                continuousTransmission
 *(.sbss.*)
 *(.scommon)
 *(.dynsbss)

.PPC.EMB.sbss0  0x400001f4        0x0
 *(.PPC.EMB.sbss0)
                0x400001f4                PROVIDE (__sbss_end, .)
                0x400001f4                PROVIDE (___sbss_end, .)
                0x400001f4                PROVIDE (__SBSS_END__, .)

.bss            0x400001f4     0x8b00
                0x400001f4                PROVIDE (__bss_start, .)
                0x400001f4                PROVIDE (___bss_start, .)
 *(.dynbss)
 *(.bss)
 .bss           0x400001f4        0x4 ./obj/MainTask.o
 .bss           0x400001f8        0x1 ../../prjgcc/MUXlab4/lib\libMUXlab4p.a(CAN_HAL.MUXLAB4p.o)
 *fill*         0x400001f9        0x3 00
 .bss           0x400001fc       0x1c ../../prjgcc/MUXlab4/lib\libMUXlab4p.a(CAN_J1939.MUXLAB4p.o)
                0x400001fc                pFlexCANRX
 .bss           0x40000218       0x48 ../../prjgcc/MUXlab4/lib\libMUXlab4p.a(eTPU_HAL.MUXLAB4p.o)
                0x40000218                cfgFreq10K
 .bss           0x40000260       0x14 ../../prjgcc/MUXlab4/lib\libMUXlab4p.a(GPIO_HAL.MUXLAB4p.o)
 .bss           0x40000274        0x1 ../../prjgcc/MUXlab4/lib\libMUXlab4p.a(LIN_HAL.MUXLAB4p.o)
 *fill*         0x40000275        0x3 00
 .bss           0x40000278        0x8 ../../prjgcc/MUXlab4/lib\libMUXlab4p.a(LIN.MUXLAB4p.o)
 .bss           0x40000280        0xc ../../prjgcc/MUXlab4/lib\libMUXlab4p.a(OS_Core.MUXLAB4p.o)
                0x40000284                u32TickTimer
                0x40000280                u32Timer1us
 *fill*         0x4000028c        0x4 00
 .bss           0x40000290       0x10 ../../prjgcc/MUXlab4/lib\libMUXlab4p.a(USB.MUXLAB4p.o)
 .bss           0x400002a0        0x1 ../../prjgcc/MUXlab4/lib\libMUXlab4p.a(CCP.MUXLAB4p.o)
 *fill*         0x400002a1        0x3 00
 .bss           0x400002a4        0x4 ../../prjgcc/MUXlab4/lib\libMUXlab4p.a(can.MUXLAB4p.o)
 .bss           0x400002a8        0x1 ../../prjgcc/MUXlab4/lib\libMUXlab4p.a(fifoCan.MUXLAB4p.o)
 *fill*         0x400002a9        0x1 00
 .bss           0x400002aa        0xa ../../prjgcc/MUXlab4/lib\libMUXlab4p.a(GasSensor.MUXLAB4p.o)
                0x400002af                readCycleRequested
                0x400002ab                dvnError
                0x400002ae                writeCycleRequested
                0x400002ac                crcError
                0x400002ad                newGasMeasurementAvailable
                0x400002aa                onChipHeaterEnabled
                0x400002b0                u16UserRegToWrite
 .bss           0x400002b4        0x4 ../../prjgcc/MUXlab4/lib\libMUXlab4p.a(SoftSPI.MUXLAB4p.o)
                0x400002b4                callbackSoftSpi
 *(COMMON)
 COMMON         0x400002b8        0x9 ./obj/DiagnosticsCAN.o
                0x400002b8                DATA_CRC
 *fill*         0x400002c1        0x7 00
 COMMON         0x400002c8      0x46c ./obj/TBRe_Mod.o
                0x400002c8                TBRe_Mod_B
                0x40000440                TBRe_Mod_M_
                0x400006f8                TBRe_Mod_DW
 COMMON         0x40000734      0x820 ./obj/main.o
                0x40000734                objCan1BMS_Feedback_1
                0x40000754                sigCan2TxHC1_DemandsSignals
                0x40000778                sigCan1TxVCU_DiagnosticsSignals
                0x40000850                objCan2HS3_Temperature_Feedback
                0x40000870                objCan1VCU_Diagnostics
                0x40000890                sigCan1RxBMS_Feedback_2Signals
                0x400008cc                sigCan1TxVCU_IMD_StatusSignals
                0x400008f0                sigCan1TxVCU_Pedal_PercentagesSignals
                0x40000944                objCan1BMS_Feedback_2
                0x40000964                sigCan1TxVCU_HW_IOSignals
                0x400009dc                objCan2HC2_Demands
                0x400009fc                sigCan2RxHS1_Torque_FeedbackSignals
                0x40000a14                sigCan1RxBMS_Feedback_3Signals
                0x40000a5c                objCan1VCU_Torque
                0x40000a7c                sigCan1TxVCU_Pedal_VoltagesSignals
                0x40000aac                sigCan1RxSteeringWheelSensorSignals
                0x40000ab8                objCan2HS1_Torque_Feedback
                0x40000ad8                sigCan1RxBMS_Feedback_1Signals
                0x40000b08                objCan2HD4_Debug_Temperatures_B
                0x40000b28                objCan1Shutdown_Data
                0x40000b48                sigCan1TxVCU_TorqueSignals
                0x40000b6c                objCan2HC4_Debug_Demands
                0x40000b8c                objCan1SteeringWheelSensor
                0x40000bac                objCan2HS4_Fault_Info
                0x40000bcc                objCan2HC3_Battery_Demands
                0x40000bec                objCan1VCU_Vehicle_Functionality
                0x40000c0c                objCan1Front_Wheel_Speeds
                0x40000c2c                sigCan2TxHC3_Battery_DemandsSignals
                0x40000c50                sigCan2RxHD4_Debug_Temperatures_BSignals
                0x40000c5c                sigCan2TxHC4_Debug_DemandsSignals
                0x40000c74                objCan1AccelerometerY
                0x40000c94                sigCan2TxHC2_DemandsSignals
                0x40000cb8                sigCan1RxShutdown_DataSignals
                0x40000da8                sigCan1RxRear_Wheel_SpeedsSignals
                0x40000dcc                objCan1Rear_Wheel_Speeds
                0x40000dec                objCan1VCU_Pedal_Voltages
                0x40000e0c                sigCan1RxFront_Wheel_SpeedsSignals
                0x40000e30                sigCan2RxHS4_Fault_InfoSignals
                0x40000e48                objCan1VCU_Pedal_Percentages
                0x40000e68                objCan1VCU_IMD_Status
                0x40000e88                sigCan1TxVCU_Vehicle_FunctionalitySignals
                0x40000ed0                sigCan2RxHS3_Temperature_FeedbackSignals
                0x40000ee8                objCan1VCU_HW_IO
                0x40000f08                objCan2HC1_Demands
                0x40000f28                objCan1BMS_Feedback_3
                0x40000f48                sigCan1RxAccelerometerYSignals
 COMMON         0x40000f54      0x124 ../../prjgcc/MUXlab4/lib\libMUXlab4p.a(CAN_J1939.MUXLAB4p.o)
                0x40000f54                J1939TP_Table
                0x40000ff4                Table_PGN
 COMMON         0x40001078       0xc0 ../../prjgcc/MUXlab4/lib\libMUXlab4p.a(GPIO_HAL.MUXLAB4p.o)
                0x40001078                digInputs
 COMMON         0x40001138      0x320 ../../prjgcc/MUXlab4/lib\libMUXlab4p.a(LIN_HAL.MUXLAB4p.o)
                0x40001138                masterChannel
                0x40001158                pUncondFrames
                0x40001358                frameIDToEventID
                0x400013d8                pScheduleTables
 COMMON         0x40001458       0x58 ../../prjgcc/MUXlab4/lib\libMUXlab4p.a(LIN.MUXLAB4p.o)
                0x40001458                linStates
                0x40001468                LINChannelManagement
 COMMON         0x400014b0     0x3df8 ../../prjgcc/MUXlab4/lib\libMUXlab4p.a(OS_Core.MUXLAB4p.o)
                0x400014b0                OS_Scheduler
 COMMON         0x400052a8     0x1008 ../../prjgcc/MUXlab4/lib\libMUXlab4p.a(USB.MUXLAB4p.o)
                0x400052a8                USBFifoRX
                0x40005aac                USBFifoTX
 COMMON         0x400062b0      0x8a8 ../../prjgcc/MUXlab4/lib\libMUXlab4p.a(CCP.MUXLAB4p.o)
                0x400062b0                CRO_DAQ_object
                0x400062d0                DTO_object
                0x400062f0                DTO_object2
                0x40006310                CCP_DAQ_cnannels
                0x4000631c                CRO_object
                0x4000633c                ccp
 COMMON         0x40006b58       0xa0 ../../prjgcc/MUXlab4/lib\libMUXlab4p.a(ADC.MUXLAB4p.o)
                0x40006b58                u32AdcResult
 COMMON         0x40006bf8      0xcac ../../prjgcc/MUXlab4/lib\libMUXlab4p.a(can.MUXLAB4p.o)
                0x40006bf8                J1939_SA_FIELD
                0x40006d2e                bufferToGateway
                0x40006e64                smartGateways
                0x40006e8c                canStatistics
                0x40006ef0                bufferToEventID
                0x40007030                bufferToCanObj
                0x40007530                frameCheckSmartGw
                0x40007668                u32maskHighReservedMbRx
                0x4000767c                u32maskReservedMbTx
                0x40007690                u32maskLowReservedMbRx
                0x400076a4                gateways
 COMMON         0x400078a4     0x1450 ../../prjgcc/MUXlab4/lib\libMUXlab4p.a(fifoCan.MUXLAB4p.o)
                0x400078a4                fifoCanTx
                0x40008cf4                PROVIDE (__bss_end, .)
                0x40008cf4                _end = DEFINED (__heap_start)?__heap_start:ALIGN (0x4)
                0x40008cf4                PROVIDE (end, _end)
                0x40008cf4                PROVIDE (__end, _end)
                0x2001f000                NEXT_LOAD_ADDR = 0x2001f000

.networkConfigSavedRam
                0x2001f000        0x0
 *(.networkConfigSavedRam)
                0x2001f000                NEXT_LOAD_ADDR = (NEXT_LOAD_ADDR + SIZEOF (.networkConfigSavedRam))

.MacConfigSavedRam
 *(.MacConfigSavedRam)

.dataSavedRam   0x20000000       0xb8
 *(.dataSavedRam)
 .dataSavedRam  0x20000000       0x50 ./obj/FlashData.o
                0x2000001e                INV_DC_Link_Target
                0x20000011                Init_System_end
                0x20000032                LV_Low_Voltage_Warning
                0x2000003c                Throttle2_Low
                0x20000022                INV_Speed_Limit_Fwd
                0x20000018                INV_Regen_Torque_Limit
                0x20000030                MCUMotor_Temp_Warning
                0x20000008                Regen_Coast
                0x20000000                Brk2_OOR_Low
                0x2000002a                TC_P_Gain
                0x20000006                Brk1_OOR_High
                0x20000036                Green_TSAL1
                0x20000004                Brk1_OOR_Low
                0x2000000c                Motor_To_Road_Speed_Ratio
                0x20000010                Brake1_Pressure_Scaling
                0x2000004a                Brake1_High
                0x20000038                Green_TSAL2
                0x2000004c                Wheel_Size
                0x20000035                Max_Torque_Boost
                0x20000048                Brake2_High
                0x20000034                MCU_Ignition
                0x20000044                Throttle2_High
                0x20000026                Brake_Active_Threshold
                0x20000028                Max_Regen
                0x20000027                Throttle_Active_Threshold
                0x20000020                INV_Speed_limit_Rev
                0x2000002c                Target_Slip_Ratio
                0x20000046                Throttle1_High
                0x2000004d                Gearing_Ratio
                0x20000002                Brk2_OOR_High
                0x20000024                INV_Torque_limit
                0x2000003a                Max_Torque_Std
                0x2000003e                Throttle1_Low
                0x20000009                Brake2_Pressure_Scaling
                0x2000001c                INV_DC_Link_Regen_Imax
                0x20000029                MinTC_Torque
                0x20000040                Brake2_Low
                0x20000014                INV_Iq_debug
                0x20000016                INV_Id_Debug
                0x20000042                Brake1_Low
                0x20000012                Init_System_Start
                0x2000001a                INV_DC_Link_Discharge_Imax
 .dataSavedRam  0x20000050       0x68 ./obj/TBRe_Mod.o
                0x20000078                SOC_Calc_Data
                0x20000050                Voltage_Act_Breakpoint
                0x20000054                SOC_Calc_Breakpoint
                0x20000068                Voltage_Act_Data

.rela.dyn

.gcc_except_table
 *(.gcc_except_table)

.stab
 *(.stab)

.stabstr
 *(.stabstr)

.debug
 *(.debug)

.line
 *(.line)

.debug_srcinfo
 *(.debug_srcinfo)

.debug_sfnames
 *(.debug_sfnames)

.debug_aranges  0x00000000      0x948
 *(.debug_aranges)
 .debug_aranges
                0x00000000       0x20 ./obj/CAN_INIT.o
 .debug_aranges
                0x00000020       0x20 ./obj/CRCJ1850.o
 .debug_aranges
                0x00000040       0x20 ./obj/DiagnosticsCAN.o
 .debug_aranges
                0x00000060       0x20 ./obj/FlashData.o
 .debug_aranges
                0x00000080       0x20 ./obj/LIN_INIT.o
 .debug_aranges
                0x000000a0       0x20 ./obj/MainTask.o
 .debug_aranges
                0x000000c0       0x20 ./obj/TBRe_Mod.o
 .debug_aranges
                0x000000e0       0x20 ./obj/main.o
 .debug_aranges
                0x00000100       0x20 ./obj/rtGetInf.o
 .debug_aranges
                0x00000120       0x20 ./obj/rtGetNaN.o
 .debug_aranges
                0x00000140       0x20 ./obj/rt_nonfinite.o
 .debug_aranges
                0x00000160       0x20 ./obj/__start.o
 .debug_aranges
                0x00000180       0x28 ./obj/mpc5500_asmcfg.o
 .debug_aranges
                0x000001a8       0x20 ./obj/APP_DiagnosticsCAN.o
 .debug_aranges
                0x000001c8       0x20 ./obj/APP_MainTask.o
 .debug_aranges
                0x000001e8       0x20 ./obj/APP_Tasks.o
 .debug_aranges
                0x00000208       0x20 ../../prjgcc/MUXlab4/lib\libMUXlab4p.a(ADC_HAL.MUXLAB4p.o)
 .debug_aranges
                0x00000228       0x20 ../../prjgcc/MUXlab4/lib\libMUXlab4p.a(CAN_HAL.MUXLAB4p.o)
 .debug_aranges
                0x00000248       0x20 ../../prjgcc/MUXlab4/lib\libMUXlab4p.a(CAN_J1939.MUXLAB4p.o)
 .debug_aranges
                0x00000268       0x20 ../../prjgcc/MUXlab4/lib\libMUXlab4p.a(CCP_HAL.MUXLAB4p.o)
 .debug_aranges
                0x00000288       0x20 ../../prjgcc/MUXlab4/lib\libMUXlab4p.a(DAC_HAL.MUXLAB4p.o)
 .debug_aranges
                0x000002a8       0x20 ../../prjgcc/MUXlab4/lib\libMUXlab4p.a(eTPU_HAL.MUXLAB4p.o)
 .debug_aranges
                0x000002c8       0x20 ../../prjgcc/MUXlab4/lib\libMUXlab4p.a(GPIO_HAL.MUXLAB4p.o)
 .debug_aranges
                0x000002e8       0x20 ../../prjgcc/MUXlab4/lib\libMUXlab4p.a(libMUXlab4.MUXLAB4p.o)
 .debug_aranges
                0x00000308       0x20 ../../prjgcc/MUXlab4/lib\libMUXlab4p.a(LIN_HAL.MUXLAB4p.o)
 .debug_aranges
                0x00000328       0x20 ../../prjgcc/MUXlab4/lib\libMUXlab4p.a(wakeup_HAL.MUXLAB4p.o)
 .debug_aranges
                0x00000348       0x20 ../../prjgcc/MUXlab4/lib\libMUXlab4p.a(LIN.MUXLAB4p.o)
 .debug_aranges
                0x00000368       0x20 ../../prjgcc/MUXlab4/lib\libMUXlab4p.a(OS_Core.MUXLAB4p.o)
 .debug_aranges
                0x00000388       0x20 ../../prjgcc/MUXlab4/lib\libMUXlab4p.a(OS_TimeBase.MUXLAB4p.o)
 .debug_aranges
                0x000003a8       0x20 ../../prjgcc/MUXlab4/lib\libMUXlab4p.a(SPI.MUXLAB4p.o)
 .debug_aranges
                0x000003c8       0x20 ../../prjgcc/MUXlab4/lib\libMUXlab4p.a(IRQ.MUXLAB4p.o)
 .debug_aranges
                0x000003e8       0x20 ../../prjgcc/MUXlab4/lib\libMUXlab4p.a(mpc5500_ccdcfg.MUXLAB4p.o)
 .debug_aranges
                0x00000408       0x20 ../../prjgcc/MUXlab4/lib\libMUXlab4p.a(USB.MUXLAB4p.o)
 .debug_aranges
                0x00000428       0x20 ../../prjgcc/MUXlab4/lib\libMUXlab4p.a(handlers.MUXLAB4p.o)
 .debug_aranges
                0x00000448       0x20 ../../prjgcc/MUXlab4/lib\libMUXlab4p.a(tb.MUXLAB4p.o)
 .debug_aranges
                0x00000468       0x20 ../../prjgcc/MUXlab4/lib\libMUXlab4p.a(CCP.MUXLAB4p.o)
 .debug_aranges
                0x00000488       0x20 ../../prjgcc/MUXlab4/lib\libMUXlab4p.a(ADC.MUXLAB4p.o)
 .debug_aranges
                0x000004a8       0x20 ../../prjgcc/MUXlab4/lib\libMUXlab4p.a(can.MUXLAB4p.o)
 .debug_aranges
                0x000004c8       0x20 ../../prjgcc/MUXlab4/lib\libMUXlab4p.a(fifoCan.MUXLAB4p.o)
 .debug_aranges
                0x000004e8       0x20 ../../prjgcc/MUXlab4/lib\libMUXlab4p.a(EMIOS.MUXLAB4p.o)
 .debug_aranges
                0x00000508       0x20 ../../prjgcc/MUXlab4/lib\libMUXlab4p.a(etpu_util.MUXLAB4p.o)
 .debug_aranges
                0x00000528       0x20 ../../prjgcc/MUXlab4/lib\libMUXlab4p.a(etpu_fpm.MUXLAB4p.o)
 .debug_aranges
                0x00000548       0x20 ../../prjgcc/MUXlab4/lib\libMUXlab4p.a(etpu_pwm.MUXLAB4p.o)
 .debug_aranges
                0x00000568       0x20 ../../prjgcc/MUXlab4/lib\libMUXlab4p.a(etpu_ppa.MUXLAB4p.o)
 .debug_aranges
                0x00000588       0x20 ../../prjgcc/MUXlab4/lib\libMUXlab4p.a(flash.MUXLAB4p.o)
 .debug_aranges
                0x000005a8       0x20 ../../prjgcc/MUXlab4/lib\libMUXlab4p.a(GPIO.MUXLAB4p.o)
 .debug_aranges
                0x000005c8       0x20 ../../prjgcc/MUXlab4/lib\libMUXlab4p.a(IntcIsrVectors.MUXLAB4p.o)
 .debug_aranges
                0x000005e8       0x20 ../../prjgcc/MUXlab4/lib\libMUXlab4p.a(GasSensor.MUXLAB4p.o)
 .debug_aranges
                0x00000608       0x20 ../../prjgcc/MUXlab4/lib\libMUXlab4p.a(SoftSPI.MUXLAB4p.o)
 .debug_aranges
                0x00000628       0x20 C:/Program Files (x86)/Nsi/powerpc-eabispe/bin/../lib/gcc/powerpc-eabispe/3.4.4\libgcc.a(_fixunsdfsi.o)
 .debug_aranges
                0x00000648       0x20 C:/Program Files (x86)/Nsi/powerpc-eabispe/bin/../lib/gcc/powerpc-eabispe/3.4.4\libgcc.a(_udivdi3.o)
 .debug_aranges
                0x00000668       0x20 C:/Program Files (x86)/Nsi/powerpc-eabispe/bin/../lib/gcc/powerpc-eabispe/3.4.4\libgcc.a(_umoddi3.o)
 .debug_aranges
                0x00000688       0x20 C:/Program Files (x86)/Nsi/powerpc-eabispe/bin/../lib/gcc/powerpc-eabispe/3.4.4\libgcc.a(_sf_to_df.o)
 .debug_aranges
                0x000006a8       0x20 C:/Program Files (x86)/Nsi/powerpc-eabispe/bin/../lib/gcc/powerpc-eabispe/3.4.4\libgcc.a(_addsub_df.o)
 .debug_aranges
                0x000006c8       0x20 C:/Program Files (x86)/Nsi/powerpc-eabispe/bin/../lib/gcc/powerpc-eabispe/3.4.4\libgcc.a(_mul_df.o)
 .debug_aranges
                0x000006e8       0x20 C:/Program Files (x86)/Nsi/powerpc-eabispe/bin/../lib/gcc/powerpc-eabispe/3.4.4\libgcc.a(_div_df.o)
 .debug_aranges
                0x00000708       0x20 C:/Program Files (x86)/Nsi/powerpc-eabispe/bin/../lib/gcc/powerpc-eabispe/3.4.4\libgcc.a(_eq_df.o)
 .debug_aranges
                0x00000728       0x20 C:/Program Files (x86)/Nsi/powerpc-eabispe/bin/../lib/gcc/powerpc-eabispe/3.4.4\libgcc.a(_ne_df.o)
 .debug_aranges
                0x00000748       0x20 C:/Program Files (x86)/Nsi/powerpc-eabispe/bin/../lib/gcc/powerpc-eabispe/3.4.4\libgcc.a(_gt_df.o)
 .debug_aranges
                0x00000768       0x20 C:/Program Files (x86)/Nsi/powerpc-eabispe/bin/../lib/gcc/powerpc-eabispe/3.4.4\libgcc.a(_ge_df.o)
 .debug_aranges
                0x00000788       0x20 C:/Program Files (x86)/Nsi/powerpc-eabispe/bin/../lib/gcc/powerpc-eabispe/3.4.4\libgcc.a(_lt_df.o)
 .debug_aranges
                0x000007a8       0x20 C:/Program Files (x86)/Nsi/powerpc-eabispe/bin/../lib/gcc/powerpc-eabispe/3.4.4\libgcc.a(_si_to_df.o)
 .debug_aranges
                0x000007c8       0x20 C:/Program Files (x86)/Nsi/powerpc-eabispe/bin/../lib/gcc/powerpc-eabispe/3.4.4\libgcc.a(_df_to_si.o)
 .debug_aranges
                0x000007e8       0x20 C:/Program Files (x86)/Nsi/powerpc-eabispe/bin/../lib/gcc/powerpc-eabispe/3.4.4\libgcc.a(_make_df.o)
 .debug_aranges
                0x00000808       0x20 C:/Program Files (x86)/Nsi/powerpc-eabispe/bin/../lib/gcc/powerpc-eabispe/3.4.4\libgcc.a(_df_to_sf.o)
 .debug_aranges
                0x00000828       0x20 C:/Program Files (x86)/Nsi/powerpc-eabispe/bin/../lib/gcc/powerpc-eabispe/3.4.4\libgcc.a(eabi.o)
 .debug_aranges
                0x00000848       0x20 C:/Program Files (x86)/Nsi/powerpc-eabispe/bin/../lib/gcc/powerpc-eabispe/3.4.4\libgcc.a(_lshrdi3.o)
 .debug_aranges
                0x00000868       0x20 C:/Program Files (x86)/Nsi/powerpc-eabispe/bin/../lib/gcc/powerpc-eabispe/3.4.4\libgcc.a(_unpack_sf.o)
 .debug_aranges
                0x00000888       0x20 C:/Program Files (x86)/Nsi/powerpc-eabispe/bin/../lib/gcc/powerpc-eabispe/3.4.4\libgcc.a(_make_sf.o)
 .debug_aranges
                0x000008a8       0x20 C:/Program Files (x86)/Nsi/powerpc-eabispe/bin/../lib/gcc/powerpc-eabispe/3.4.4\libgcc.a(_pack_df.o)
 .debug_aranges
                0x000008c8       0x20 C:/Program Files (x86)/Nsi/powerpc-eabispe/bin/../lib/gcc/powerpc-eabispe/3.4.4\libgcc.a(_unpack_df.o)
 .debug_aranges
                0x000008e8       0x20 C:/Program Files (x86)/Nsi/powerpc-eabispe/bin/../lib/gcc/powerpc-eabispe/3.4.4\libgcc.a(_fpcmp_parts_df.o)
 .debug_aranges
                0x00000908       0x20 C:/Program Files (x86)/Nsi/powerpc-eabispe/bin/../lib/gcc/powerpc-eabispe/3.4.4\libgcc.a(_ashldi3.o)
 .debug_aranges
                0x00000928       0x20 C:/Program Files (x86)/Nsi/powerpc-eabispe/bin/../lib/gcc/powerpc-eabispe/3.4.4\libgcc.a(_pack_sf.o)

.debug_pubnames
                0x00000000     0x3c7f
 *(.debug_pubnames)
 .debug_pubnames
                0x00000000       0x1f ./obj/CAN_INIT.o
 .debug_pubnames
                0x0000001f       0x23 ./obj/CRCJ1850.o
 .debug_pubnames
                0x00000042       0xc7 ./obj/DiagnosticsCAN.o
 .debug_pubnames
                0x00000109      0x473 ./obj/FlashData.o
 .debug_pubnames
                0x0000057c       0x1f ./obj/LIN_INIT.o
 .debug_pubnames
                0x0000059b       0xdb ./obj/MainTask.o
 .debug_pubnames
                0x00000676      0x1e9 ./obj/TBRe_Mod.o
 .debug_pubnames
                0x0000085f       0xab ./obj/TBRe_Mod_data.o
 .debug_pubnames
                0x0000090a      0x5fe ./obj/main.o
 .debug_pubnames
                0x00000f08       0x52 ./obj/rtGetInf.o
 .debug_pubnames
                0x00000f5a       0x2d ./obj/rtGetNaN.o
 .debug_pubnames
                0x00000f87       0xa2 ./obj/rt_nonfinite.o
 .debug_pubnames
                0x00001029       0x3e ./obj/APP_DiagnosticsCAN.o
 .debug_pubnames
                0x00001067       0x32 ./obj/APP_MainTask.o
 .debug_pubnames
                0x00001099       0x56 ./obj/APP_Tasks.o
 .debug_pubnames
                0x000010ef       0x6a ../../prjgcc/MUXlab4/lib\libMUXlab4p.a(ADC_HAL.MUXLAB4p.o)
 .debug_pubnames
                0x00001159      0x1cd ../../prjgcc/MUXlab4/lib\libMUXlab4p.a(CAN_HAL.MUXLAB4p.o)
 .debug_pubnames
                0x00001326      0x1e4 ../../prjgcc/MUXlab4/lib\libMUXlab4p.a(CAN_J1939.MUXLAB4p.o)
 .debug_pubnames
                0x0000150a       0x1f ../../prjgcc/MUXlab4/lib\libMUXlab4p.a(CCP_HAL.MUXLAB4p.o)
 .debug_pubnames
                0x00001529       0x3d ../../prjgcc/MUXlab4/lib\libMUXlab4p.a(DAC_HAL.MUXLAB4p.o)
 .debug_pubnames
                0x00001566      0x127 ../../prjgcc/MUXlab4/lib\libMUXlab4p.a(eTPU_HAL.MUXLAB4p.o)
 .debug_pubnames
                0x0000168d      0x123 ../../prjgcc/MUXlab4/lib\libMUXlab4p.a(GPIO_HAL.MUXLAB4p.o)
 .debug_pubnames
                0x000017b0      0x12b ../../prjgcc/MUXlab4/lib\libMUXlab4p.a(libMUXlab4.MUXLAB4p.o)
 .debug_pubnames
                0x000018db      0x13a ../../prjgcc/MUXlab4/lib\libMUXlab4p.a(LIN_HAL.MUXLAB4p.o)
 .debug_pubnames
                0x00001a15       0x35 ../../prjgcc/MUXlab4/lib\libMUXlab4p.a(wakeup_HAL.MUXLAB4p.o)
 .debug_pubnames
                0x00001a4a      0x1fd ../../prjgcc/MUXlab4/lib\libMUXlab4p.a(LIN.MUXLAB4p.o)
 .debug_pubnames
                0x00001c47      0x1cf ../../prjgcc/MUXlab4/lib\libMUXlab4p.a(OS_Core.MUXLAB4p.o)
 .debug_pubnames
                0x00001e16       0x25 ../../prjgcc/MUXlab4/lib\libMUXlab4p.a(OS_TimeBase.MUXLAB4p.o)
 .debug_pubnames
                0x00001e3b       0xf9 ../../prjgcc/MUXlab4/lib\libMUXlab4p.a(SPI.MUXLAB4p.o)
 .debug_pubnames
                0x00001f34       0x37 ../../prjgcc/MUXlab4/lib\libMUXlab4p.a(IRQ.MUXLAB4p.o)
 .debug_pubnames
                0x00001f6b       0xc9 ../../prjgcc/MUXlab4/lib\libMUXlab4p.a(mpc5500_ccdcfg.MUXLAB4p.o)
 .debug_pubnames
                0x00002034      0x445 ../../prjgcc/MUXlab4/lib\libMUXlab4p.a(USB.MUXLAB4p.o)
 .debug_pubnames
                0x00002479      0x233 ../../prjgcc/MUXlab4/lib\libMUXlab4p.a(CCP.MUXLAB4p.o)
 .debug_pubnames
                0x000026ac       0x61 ../../prjgcc/MUXlab4/lib\libMUXlab4p.a(ADC.MUXLAB4p.o)
 .debug_pubnames
                0x0000270d      0x39b ../../prjgcc/MUXlab4/lib\libMUXlab4p.a(can.MUXLAB4p.o)
 .debug_pubnames
                0x00002aa8       0xa2 ../../prjgcc/MUXlab4/lib\libMUXlab4p.a(fifoCan.MUXLAB4p.o)
 .debug_pubnames
                0x00002b4a      0x10d ../../prjgcc/MUXlab4/lib\libMUXlab4p.a(EMIOS.MUXLAB4p.o)
 .debug_pubnames
                0x00002c57      0x5fe ../../prjgcc/MUXlab4/lib\libMUXlab4p.a(etpu_util.MUXLAB4p.o)
 .debug_pubnames
                0x00003255       0x7d ../../prjgcc/MUXlab4/lib\libMUXlab4p.a(etpu_fpm.MUXLAB4p.o)
 .debug_pubnames
                0x000032d2       0x87 ../../prjgcc/MUXlab4/lib\libMUXlab4p.a(etpu_pwm.MUXLAB4p.o)
 .debug_pubnames
                0x00003359       0x66 ../../prjgcc/MUXlab4/lib\libMUXlab4p.a(etpu_ppa.MUXLAB4p.o)
 .debug_pubnames
                0x000033bf       0x57 ../../prjgcc/MUXlab4/lib\libMUXlab4p.a(flash.MUXLAB4p.o)
 .debug_pubnames
                0x00003416       0x3f ../../prjgcc/MUXlab4/lib\libMUXlab4p.a(GPIO.MUXLAB4p.o)
 .debug_pubnames
                0x00003455       0x5f ../../prjgcc/MUXlab4/lib\libMUXlab4p.a(IntcIsrVectors.MUXLAB4p.o)
 .debug_pubnames
                0x000034b4      0x3a4 ../../prjgcc/MUXlab4/lib\libMUXlab4p.a(GasSensor.MUXLAB4p.o)
 .debug_pubnames
                0x00003858       0xf3 ../../prjgcc/MUXlab4/lib\libMUXlab4p.a(SoftSPI.MUXLAB4p.o)
 .debug_pubnames
                0x0000394b       0x23 C:/Program Files (x86)/Nsi/powerpc-eabispe/bin/../lib/gcc/powerpc-eabispe/3.4.4\libgcc.a(_fixunsdfsi.o)
 .debug_pubnames
                0x0000396e       0x20 C:/Program Files (x86)/Nsi/powerpc-eabispe/bin/../lib/gcc/powerpc-eabispe/3.4.4\libgcc.a(_udivdi3.o)
 .debug_pubnames
                0x0000398e       0x20 C:/Program Files (x86)/Nsi/powerpc-eabispe/bin/../lib/gcc/powerpc-eabispe/3.4.4\libgcc.a(_umoddi3.o)
 .debug_pubnames
                0x000039ae       0x24 C:/Program Files (x86)/Nsi/powerpc-eabispe/bin/../lib/gcc/powerpc-eabispe/3.4.4\libgcc.a(_sf_to_df.o)
 .debug_pubnames
                0x000039d2       0x2c C:/Program Files (x86)/Nsi/powerpc-eabispe/bin/../lib/gcc/powerpc-eabispe/3.4.4\libgcc.a(_addsub_df.o)
 .debug_pubnames
                0x000039fe       0x1f C:/Program Files (x86)/Nsi/powerpc-eabispe/bin/../lib/gcc/powerpc-eabispe/3.4.4\libgcc.a(_mul_df.o)
 .debug_pubnames
                0x00003a1d       0x1f C:/Program Files (x86)/Nsi/powerpc-eabispe/bin/../lib/gcc/powerpc-eabispe/3.4.4\libgcc.a(_div_df.o)
 .debug_pubnames
                0x00003a3c       0x1e C:/Program Files (x86)/Nsi/powerpc-eabispe/bin/../lib/gcc/powerpc-eabispe/3.4.4\libgcc.a(_eq_df.o)
 .debug_pubnames
                0x00003a5a       0x1e C:/Program Files (x86)/Nsi/powerpc-eabispe/bin/../lib/gcc/powerpc-eabispe/3.4.4\libgcc.a(_ne_df.o)
 .debug_pubnames
                0x00003a78       0x1e C:/Program Files (x86)/Nsi/powerpc-eabispe/bin/../lib/gcc/powerpc-eabispe/3.4.4\libgcc.a(_gt_df.o)
 .debug_pubnames
                0x00003a96       0x1e C:/Program Files (x86)/Nsi/powerpc-eabispe/bin/../lib/gcc/powerpc-eabispe/3.4.4\libgcc.a(_ge_df.o)
 .debug_pubnames
                0x00003ab4       0x1e C:/Program Files (x86)/Nsi/powerpc-eabispe/bin/../lib/gcc/powerpc-eabispe/3.4.4\libgcc.a(_lt_df.o)
 .debug_pubnames
                0x00003ad2       0x22 C:/Program Files (x86)/Nsi/powerpc-eabispe/bin/../lib/gcc/powerpc-eabispe/3.4.4\libgcc.a(_si_to_df.o)
 .debug_pubnames
                0x00003af4       0x20 C:/Program Files (x86)/Nsi/powerpc-eabispe/bin/../lib/gcc/powerpc-eabispe/3.4.4\libgcc.a(_df_to_si.o)
 .debug_pubnames
                0x00003b14       0x20 C:/Program Files (x86)/Nsi/powerpc-eabispe/bin/../lib/gcc/powerpc-eabispe/3.4.4\libgcc.a(_make_df.o)
 .debug_pubnames
                0x00003b34       0x23 C:/Program Files (x86)/Nsi/powerpc-eabispe/bin/../lib/gcc/powerpc-eabispe/3.4.4\libgcc.a(_df_to_sf.o)
 .debug_pubnames
                0x00003b57       0x22 C:/Program Files (x86)/Nsi/powerpc-eabispe/bin/../lib/gcc/powerpc-eabispe/3.4.4\libgcc.a(_thenan_df.o)
 .debug_pubnames
                0x00003b79       0x20 C:/Program Files (x86)/Nsi/powerpc-eabispe/bin/../lib/gcc/powerpc-eabispe/3.4.4\libgcc.a(_lshrdi3.o)
 .debug_pubnames
                0x00003b99       0x21 C:/Program Files (x86)/Nsi/powerpc-eabispe/bin/../lib/gcc/powerpc-eabispe/3.4.4\libgcc.a(_unpack_sf.o)
 .debug_pubnames
                0x00003bba       0x20 C:/Program Files (x86)/Nsi/powerpc-eabispe/bin/../lib/gcc/powerpc-eabispe/3.4.4\libgcc.a(_make_sf.o)
 .debug_pubnames
                0x00003bda       0x1f C:/Program Files (x86)/Nsi/powerpc-eabispe/bin/../lib/gcc/powerpc-eabispe/3.4.4\libgcc.a(_pack_df.o)
 .debug_pubnames
                0x00003bf9       0x21 C:/Program Files (x86)/Nsi/powerpc-eabispe/bin/../lib/gcc/powerpc-eabispe/3.4.4\libgcc.a(_unpack_df.o)
 .debug_pubnames
                0x00003c1a       0x26 C:/Program Files (x86)/Nsi/powerpc-eabispe/bin/../lib/gcc/powerpc-eabispe/3.4.4\libgcc.a(_fpcmp_parts_df.o)
 .debug_pubnames
                0x00003c40       0x20 C:/Program Files (x86)/Nsi/powerpc-eabispe/bin/../lib/gcc/powerpc-eabispe/3.4.4\libgcc.a(_ashldi3.o)
 .debug_pubnames
                0x00003c60       0x1f C:/Program Files (x86)/Nsi/powerpc-eabispe/bin/../lib/gcc/powerpc-eabispe/3.4.4\libgcc.a(_pack_sf.o)

.debug_info     0x00000000    0x2de0b
 *(.debug_info)
 .debug_info    0x00000000       0x7e ./obj/CAN_INIT.o
 .debug_info    0x0000007e      0x10f ./obj/CRCJ1850.o
 .debug_info    0x0000018d     0x11a7 ./obj/DiagnosticsCAN.o
 .debug_info    0x00001334     0x12c0 ./obj/FlashData.o
 .debug_info    0x000025f4      0x12a ./obj/LIN_INIT.o
 .debug_info    0x0000271e     0x188d ./obj/MainTask.o
 .debug_info    0x00003fab     0x4fc2 ./obj/TBRe_Mod.o
 .debug_info    0x00008f6d      0x1e0 ./obj/TBRe_Mod_data.o
 .debug_info    0x0000914d      0x62b ./obj/main.o
 .debug_info    0x00009778      0x3a6 ./obj/rtGetInf.o
 .debug_info    0x00009b1e      0x2cc ./obj/rtGetNaN.o
 .debug_info    0x00009dea      0x1fb ./obj/rt_nonfinite.o
 .debug_info    0x00009fe5       0x66 ./obj/__start.o
 .debug_info    0x0000a04b       0x65 ./obj/mpc5500_asmcfg.o
 .debug_info    0x0000a0b0       0xb7 ./obj/APP_DiagnosticsCAN.o
 .debug_info    0x0000a167       0xb7 ./obj/APP_MainTask.o
 .debug_info    0x0000a21e      0x126 ./obj/APP_Tasks.o
 .debug_info    0x0000a344      0x15f ../../prjgcc/MUXlab4/lib\libMUXlab4p.a(ADC_HAL.MUXLAB4p.o)
 .debug_info    0x0000a4a3     0x1e65 ../../prjgcc/MUXlab4/lib\libMUXlab4p.a(CAN_HAL.MUXLAB4p.o)
 .debug_info    0x0000c308     0x1b1b ../../prjgcc/MUXlab4/lib\libMUXlab4p.a(CAN_J1939.MUXLAB4p.o)
 .debug_info    0x0000de23      0x270 ../../prjgcc/MUXlab4/lib\libMUXlab4p.a(CCP_HAL.MUXLAB4p.o)
 .debug_info    0x0000e093      0x1c6 ../../prjgcc/MUXlab4/lib\libMUXlab4p.a(DAC_HAL.MUXLAB4p.o)
 .debug_info    0x0000e259      0x47a ../../prjgcc/MUXlab4/lib\libMUXlab4p.a(eTPU_HAL.MUXLAB4p.o)
 .debug_info    0x0000e6d3     0x185c ../../prjgcc/MUXlab4/lib\libMUXlab4p.a(GPIO_HAL.MUXLAB4p.o)
 .debug_info    0x0000ff2f      0x307 ../../prjgcc/MUXlab4/lib\libMUXlab4p.a(libMUXlab4.MUXLAB4p.o)
 .debug_info    0x00010236      0x865 ../../prjgcc/MUXlab4/lib\libMUXlab4p.a(LIN_HAL.MUXLAB4p.o)
 .debug_info    0x00010a9b      0x338 ../../prjgcc/MUXlab4/lib\libMUXlab4p.a(wakeup_HAL.MUXLAB4p.o)
 .debug_info    0x00010dd3      0xe9c ../../prjgcc/MUXlab4/lib\libMUXlab4p.a(LIN.MUXLAB4p.o)
 .debug_info    0x00011c6f      0x7f9 ../../prjgcc/MUXlab4/lib\libMUXlab4p.a(OS_Core.MUXLAB4p.o)
 .debug_info    0x00012468       0x78 ../../prjgcc/MUXlab4/lib\libMUXlab4p.a(OS_TimeBase.MUXLAB4p.o)
 .debug_info    0x000124e0      0xe70 ../../prjgcc/MUXlab4/lib\libMUXlab4p.a(SPI.MUXLAB4p.o)
 .debug_info    0x00013350       0xbe ../../prjgcc/MUXlab4/lib\libMUXlab4p.a(IRQ.MUXLAB4p.o)
 .debug_info    0x0001340e      0x45d ../../prjgcc/MUXlab4/lib\libMUXlab4p.a(mpc5500_ccdcfg.MUXLAB4p.o)
 .debug_info    0x0001386b     0x1976 ../../prjgcc/MUXlab4/lib\libMUXlab4p.a(USB.MUXLAB4p.o)
 .debug_info    0x000151e1       0x90 ../../prjgcc/MUXlab4/lib\libMUXlab4p.a(handlers.MUXLAB4p.o)
 .debug_info    0x00015271       0x88 ../../prjgcc/MUXlab4/lib\libMUXlab4p.a(tb.MUXLAB4p.o)
 .debug_info    0x000152f9      0xadf ../../prjgcc/MUXlab4/lib\libMUXlab4p.a(CCP.MUXLAB4p.o)
 .debug_info    0x00015dd8      0x293 ../../prjgcc/MUXlab4/lib\libMUXlab4p.a(ADC.MUXLAB4p.o)
 .debug_info    0x0001606b     0x2012 ../../prjgcc/MUXlab4/lib\libMUXlab4p.a(can.MUXLAB4p.o)
 .debug_info    0x0001807d     0x1553 ../../prjgcc/MUXlab4/lib\libMUXlab4p.a(fifoCan.MUXLAB4p.o)
 .debug_info    0x000195d0      0x22a ../../prjgcc/MUXlab4/lib\libMUXlab4p.a(EMIOS.MUXLAB4p.o)
 .debug_info    0x000197fa     0x4825 ../../prjgcc/MUXlab4/lib\libMUXlab4p.a(etpu_util.MUXLAB4p.o)
 .debug_info    0x0001e01f     0x3bb5 ../../prjgcc/MUXlab4/lib\libMUXlab4p.a(etpu_fpm.MUXLAB4p.o)
 .debug_info    0x00021bd4     0x3c10 ../../prjgcc/MUXlab4/lib\libMUXlab4p.a(etpu_pwm.MUXLAB4p.o)
 .debug_info    0x000257e4     0x3b6b ../../prjgcc/MUXlab4/lib\libMUXlab4p.a(etpu_ppa.MUXLAB4p.o)
 .debug_info    0x0002934f      0x1e7 ../../prjgcc/MUXlab4/lib\libMUXlab4p.a(flash.MUXLAB4p.o)
 .debug_info    0x00029536       0xf7 ../../prjgcc/MUXlab4/lib\libMUXlab4p.a(GPIO.MUXLAB4p.o)
 .debug_info    0x0002962d       0xee ../../prjgcc/MUXlab4/lib\libMUXlab4p.a(IntcIsrVectors.MUXLAB4p.o)
 .debug_info    0x0002971b      0x816 ../../prjgcc/MUXlab4/lib\libMUXlab4p.a(GasSensor.MUXLAB4p.o)
 .debug_info    0x00029f31      0x1e2 ../../prjgcc/MUXlab4/lib\libMUXlab4p.a(SoftSPI.MUXLAB4p.o)
 .debug_info    0x0002a113       0xba C:/Program Files (x86)/Nsi/powerpc-eabispe/bin/../lib/gcc/powerpc-eabispe/3.4.4\libgcc.a(_fixunsdfsi.o)
 .debug_info    0x0002a1cd      0x52e C:/Program Files (x86)/Nsi/powerpc-eabispe/bin/../lib/gcc/powerpc-eabispe/3.4.4\libgcc.a(_udivdi3.o)
 .debug_info    0x0002a6fb      0x533 C:/Program Files (x86)/Nsi/powerpc-eabispe/bin/../lib/gcc/powerpc-eabispe/3.4.4\libgcc.a(_umoddi3.o)
 .debug_info    0x0002ac2e      0x1f5 C:/Program Files (x86)/Nsi/powerpc-eabispe/bin/../lib/gcc/powerpc-eabispe/3.4.4\libgcc.a(_sf_to_df.o)
 .debug_info    0x0002ae23      0x40b C:/Program Files (x86)/Nsi/powerpc-eabispe/bin/../lib/gcc/powerpc-eabispe/3.4.4\libgcc.a(_addsub_df.o)
 .debug_info    0x0002b22e      0x444 C:/Program Files (x86)/Nsi/powerpc-eabispe/bin/../lib/gcc/powerpc-eabispe/3.4.4\libgcc.a(_mul_df.o)
 .debug_info    0x0002b672      0x344 C:/Program Files (x86)/Nsi/powerpc-eabispe/bin/../lib/gcc/powerpc-eabispe/3.4.4\libgcc.a(_div_df.o)
 .debug_info    0x0002b9b6      0x235 C:/Program Files (x86)/Nsi/powerpc-eabispe/bin/../lib/gcc/powerpc-eabispe/3.4.4\libgcc.a(_eq_df.o)
 .debug_info    0x0002bbeb      0x235 C:/Program Files (x86)/Nsi/powerpc-eabispe/bin/../lib/gcc/powerpc-eabispe/3.4.4\libgcc.a(_ne_df.o)
 .debug_info    0x0002be20      0x235 C:/Program Files (x86)/Nsi/powerpc-eabispe/bin/../lib/gcc/powerpc-eabispe/3.4.4\libgcc.a(_gt_df.o)
 .debug_info    0x0002c055      0x235 C:/Program Files (x86)/Nsi/powerpc-eabispe/bin/../lib/gcc/powerpc-eabispe/3.4.4\libgcc.a(_ge_df.o)
 .debug_info    0x0002c28a      0x235 C:/Program Files (x86)/Nsi/powerpc-eabispe/bin/../lib/gcc/powerpc-eabispe/3.4.4\libgcc.a(_lt_df.o)
 .debug_info    0x0002c4bf      0x1b9 C:/Program Files (x86)/Nsi/powerpc-eabispe/bin/../lib/gcc/powerpc-eabispe/3.4.4\libgcc.a(_si_to_df.o)
 .debug_info    0x0002c678      0x245 C:/Program Files (x86)/Nsi/powerpc-eabispe/bin/../lib/gcc/powerpc-eabispe/3.4.4\libgcc.a(_df_to_si.o)
 .debug_info    0x0002c8bd      0x1d2 C:/Program Files (x86)/Nsi/powerpc-eabispe/bin/../lib/gcc/powerpc-eabispe/3.4.4\libgcc.a(_make_df.o)
 .debug_info    0x0002ca8f      0x214 C:/Program Files (x86)/Nsi/powerpc-eabispe/bin/../lib/gcc/powerpc-eabispe/3.4.4\libgcc.a(_df_to_sf.o)
 .debug_info    0x0002cca3      0x164 C:/Program Files (x86)/Nsi/powerpc-eabispe/bin/../lib/gcc/powerpc-eabispe/3.4.4\libgcc.a(_thenan_df.o)
 .debug_info    0x0002ce07       0x54 C:/Program Files (x86)/Nsi/powerpc-eabispe/bin/../lib/gcc/powerpc-eabispe/3.4.4\libgcc.a(eabi.o)
 .debug_info    0x0002ce5b      0x183 C:/Program Files (x86)/Nsi/powerpc-eabispe/bin/../lib/gcc/powerpc-eabispe/3.4.4\libgcc.a(_lshrdi3.o)
 .debug_info    0x0002cfde      0x20e C:/Program Files (x86)/Nsi/powerpc-eabispe/bin/../lib/gcc/powerpc-eabispe/3.4.4\libgcc.a(_unpack_sf.o)
 .debug_info    0x0002d1ec      0x1cd C:/Program Files (x86)/Nsi/powerpc-eabispe/bin/../lib/gcc/powerpc-eabispe/3.4.4\libgcc.a(_make_sf.o)
 .debug_info    0x0002d3b9      0x272 C:/Program Files (x86)/Nsi/powerpc-eabispe/bin/../lib/gcc/powerpc-eabispe/3.4.4\libgcc.a(_pack_df.o)
 .debug_info    0x0002d62b      0x21f C:/Program Files (x86)/Nsi/powerpc-eabispe/bin/../lib/gcc/powerpc-eabispe/3.4.4\libgcc.a(_unpack_df.o)
 .debug_info    0x0002d84a      0x1df C:/Program Files (x86)/Nsi/powerpc-eabispe/bin/../lib/gcc/powerpc-eabispe/3.4.4\libgcc.a(_fpcmp_parts_df.o)
 .debug_info    0x0002da29      0x183 C:/Program Files (x86)/Nsi/powerpc-eabispe/bin/../lib/gcc/powerpc-eabispe/3.4.4\libgcc.a(_ashldi3.o)
 .debug_info    0x0002dbac      0x25f C:/Program Files (x86)/Nsi/powerpc-eabispe/bin/../lib/gcc/powerpc-eabispe/3.4.4\libgcc.a(_pack_sf.o)

.debug_abbrev   0x00000000     0x59ba
 *(.debug_abbrev)
 .debug_abbrev  0x00000000       0x3d ./obj/CAN_INIT.o
 .debug_abbrev  0x0000003d       0xae ./obj/CRCJ1850.o
 .debug_abbrev  0x000000eb      0x15a ./obj/DiagnosticsCAN.o
 .debug_abbrev  0x00000245       0xf8 ./obj/FlashData.o
 .debug_abbrev  0x0000033d       0xaa ./obj/LIN_INIT.o
 .debug_abbrev  0x000003e7      0x1ea ./obj/MainTask.o
 .debug_abbrev  0x000005d1      0x2bf ./obj/TBRe_Mod.o
 .debug_abbrev  0x00000890       0x97 ./obj/TBRe_Mod_data.o
 .debug_abbrev  0x00000927       0xfe ./obj/main.o
 .debug_abbrev  0x00000a25       0xfb ./obj/rtGetInf.o
 .debug_abbrev  0x00000b20       0xfb ./obj/rtGetNaN.o
 .debug_abbrev  0x00000c1b       0x94 ./obj/rt_nonfinite.o
 .debug_abbrev  0x00000caf       0x14 ./obj/__start.o
 .debug_abbrev  0x00000cc3       0x10 ./obj/mpc5500_asmcfg.o
 .debug_abbrev  0x00000cd3       0x5b ./obj/APP_DiagnosticsCAN.o
 .debug_abbrev  0x00000d2e       0x5b ./obj/APP_MainTask.o
 .debug_abbrev  0x00000d89       0x9d ./obj/APP_Tasks.o
 .debug_abbrev  0x00000e26       0x9f ../../prjgcc/MUXlab4/lib\libMUXlab4p.a(ADC_HAL.MUXLAB4p.o)
 .debug_abbrev  0x00000ec5      0x256 ../../prjgcc/MUXlab4/lib\libMUXlab4p.a(CAN_HAL.MUXLAB4p.o)
 .debug_abbrev  0x0000111b      0x288 ../../prjgcc/MUXlab4/lib\libMUXlab4p.a(CAN_J1939.MUXLAB4p.o)
 .debug_abbrev  0x000013a3       0xf9 ../../prjgcc/MUXlab4/lib\libMUXlab4p.a(CCP_HAL.MUXLAB4p.o)
 .debug_abbrev  0x0000149c      0x110 ../../prjgcc/MUXlab4/lib\libMUXlab4p.a(DAC_HAL.MUXLAB4p.o)
 .debug_abbrev  0x000015ac      0x186 ../../prjgcc/MUXlab4/lib\libMUXlab4p.a(eTPU_HAL.MUXLAB4p.o)
 .debug_abbrev  0x00001732      0x22c ../../prjgcc/MUXlab4/lib\libMUXlab4p.a(GPIO_HAL.MUXLAB4p.o)
 .debug_abbrev  0x0000195e      0x155 ../../prjgcc/MUXlab4/lib\libMUXlab4p.a(libMUXlab4.MUXLAB4p.o)
 .debug_abbrev  0x00001ab3      0x155 ../../prjgcc/MUXlab4/lib\libMUXlab4p.a(LIN_HAL.MUXLAB4p.o)
 .debug_abbrev  0x00001c08       0xfe ../../prjgcc/MUXlab4/lib\libMUXlab4p.a(wakeup_HAL.MUXLAB4p.o)
 .debug_abbrev  0x00001d06      0x217 ../../prjgcc/MUXlab4/lib\libMUXlab4p.a(LIN.MUXLAB4p.o)
 .debug_abbrev  0x00001f1d      0x225 ../../prjgcc/MUXlab4/lib\libMUXlab4p.a(OS_Core.MUXLAB4p.o)
 .debug_abbrev  0x00002142       0x3f ../../prjgcc/MUXlab4/lib\libMUXlab4p.a(OS_TimeBase.MUXLAB4p.o)
 .debug_abbrev  0x00002181      0x215 ../../prjgcc/MUXlab4/lib\libMUXlab4p.a(SPI.MUXLAB4p.o)
 .debug_abbrev  0x00002396       0x6c ../../prjgcc/MUXlab4/lib\libMUXlab4p.a(IRQ.MUXLAB4p.o)
 .debug_abbrev  0x00002402       0xdc ../../prjgcc/MUXlab4/lib\libMUXlab4p.a(mpc5500_ccdcfg.MUXLAB4p.o)
 .debug_abbrev  0x000024de      0x301 ../../prjgcc/MUXlab4/lib\libMUXlab4p.a(USB.MUXLAB4p.o)
 .debug_abbrev  0x000027df       0x14 ../../prjgcc/MUXlab4/lib\libMUXlab4p.a(handlers.MUXLAB4p.o)
 .debug_abbrev  0x000027f3       0x14 ../../prjgcc/MUXlab4/lib\libMUXlab4p.a(tb.MUXLAB4p.o)
 .debug_abbrev  0x00002807      0x2e2 ../../prjgcc/MUXlab4/lib\libMUXlab4p.a(CCP.MUXLAB4p.o)
 .debug_abbrev  0x00002ae9      0x115 ../../prjgcc/MUXlab4/lib\libMUXlab4p.a(ADC.MUXLAB4p.o)
 .debug_abbrev  0x00002bfe      0x2d7 ../../prjgcc/MUXlab4/lib\libMUXlab4p.a(can.MUXLAB4p.o)
 .debug_abbrev  0x00002ed5      0x1df ../../prjgcc/MUXlab4/lib\libMUXlab4p.a(fifoCan.MUXLAB4p.o)
 .debug_abbrev  0x000030b4       0xbc ../../prjgcc/MUXlab4/lib\libMUXlab4p.a(EMIOS.MUXLAB4p.o)
 .debug_abbrev  0x00003170      0x267 ../../prjgcc/MUXlab4/lib\libMUXlab4p.a(etpu_util.MUXLAB4p.o)
 .debug_abbrev  0x000033d7      0x1d7 ../../prjgcc/MUXlab4/lib\libMUXlab4p.a(etpu_fpm.MUXLAB4p.o)
 .debug_abbrev  0x000035ae      0x1ca ../../prjgcc/MUXlab4/lib\libMUXlab4p.a(etpu_pwm.MUXLAB4p.o)
 .debug_abbrev  0x00003778      0x1a4 ../../prjgcc/MUXlab4/lib\libMUXlab4p.a(etpu_ppa.MUXLAB4p.o)
 .debug_abbrev  0x0000391c       0xce ../../prjgcc/MUXlab4/lib\libMUXlab4p.a(flash.MUXLAB4p.o)
 .debug_abbrev  0x000039ea       0x76 ../../prjgcc/MUXlab4/lib\libMUXlab4p.a(GPIO.MUXLAB4p.o)
 .debug_abbrev  0x00003a60       0x83 ../../prjgcc/MUXlab4/lib\libMUXlab4p.a(IntcIsrVectors.MUXLAB4p.o)
 .debug_abbrev  0x00003ae3      0x1f4 ../../prjgcc/MUXlab4/lib\libMUXlab4p.a(GasSensor.MUXLAB4p.o)
 .debug_abbrev  0x00003cd7       0xc5 ../../prjgcc/MUXlab4/lib\libMUXlab4p.a(SoftSPI.MUXLAB4p.o)
 .debug_abbrev  0x00003d9c       0x5d C:/Program Files (x86)/Nsi/powerpc-eabispe/bin/../lib/gcc/powerpc-eabispe/3.4.4\libgcc.a(_fixunsdfsi.o)
 .debug_abbrev  0x00003df9      0x13d C:/Program Files (x86)/Nsi/powerpc-eabispe/bin/../lib/gcc/powerpc-eabispe/3.4.4\libgcc.a(_udivdi3.o)
 .debug_abbrev  0x00003f36      0x160 C:/Program Files (x86)/Nsi/powerpc-eabispe/bin/../lib/gcc/powerpc-eabispe/3.4.4\libgcc.a(_umoddi3.o)
 .debug_abbrev  0x00004096       0xfe C:/Program Files (x86)/Nsi/powerpc-eabispe/bin/../lib/gcc/powerpc-eabispe/3.4.4\libgcc.a(_sf_to_df.o)
 .debug_abbrev  0x00004194      0x1a2 C:/Program Files (x86)/Nsi/powerpc-eabispe/bin/../lib/gcc/powerpc-eabispe/3.4.4\libgcc.a(_addsub_df.o)
 .debug_abbrev  0x00004336      0x1bc C:/Program Files (x86)/Nsi/powerpc-eabispe/bin/../lib/gcc/powerpc-eabispe/3.4.4\libgcc.a(_mul_df.o)
 .debug_abbrev  0x000044f2      0x1ac C:/Program Files (x86)/Nsi/powerpc-eabispe/bin/../lib/gcc/powerpc-eabispe/3.4.4\libgcc.a(_div_df.o)
 .debug_abbrev  0x0000469e       0xfe C:/Program Files (x86)/Nsi/powerpc-eabispe/bin/../lib/gcc/powerpc-eabispe/3.4.4\libgcc.a(_eq_df.o)
 .debug_abbrev  0x0000479c       0xfe C:/Program Files (x86)/Nsi/powerpc-eabispe/bin/../lib/gcc/powerpc-eabispe/3.4.4\libgcc.a(_ne_df.o)
 .debug_abbrev  0x0000489a       0xfe C:/Program Files (x86)/Nsi/powerpc-eabispe/bin/../lib/gcc/powerpc-eabispe/3.4.4\libgcc.a(_gt_df.o)
 .debug_abbrev  0x00004998       0xfe C:/Program Files (x86)/Nsi/powerpc-eabispe/bin/../lib/gcc/powerpc-eabispe/3.4.4\libgcc.a(_ge_df.o)
 .debug_abbrev  0x00004a96       0xfe C:/Program Files (x86)/Nsi/powerpc-eabispe/bin/../lib/gcc/powerpc-eabispe/3.4.4\libgcc.a(_lt_df.o)
 .debug_abbrev  0x00004b94       0xf1 C:/Program Files (x86)/Nsi/powerpc-eabispe/bin/../lib/gcc/powerpc-eabispe/3.4.4\libgcc.a(_si_to_df.o)
 .debug_abbrev  0x00004c85      0x146 C:/Program Files (x86)/Nsi/powerpc-eabispe/bin/../lib/gcc/powerpc-eabispe/3.4.4\libgcc.a(_df_to_si.o)
 .debug_abbrev  0x00004dcb      0x100 C:/Program Files (x86)/Nsi/powerpc-eabispe/bin/../lib/gcc/powerpc-eabispe/3.4.4\libgcc.a(_make_df.o)
 .debug_abbrev  0x00004ecb      0x10d C:/Program Files (x86)/Nsi/powerpc-eabispe/bin/../lib/gcc/powerpc-eabispe/3.4.4\libgcc.a(_df_to_sf.o)
 .debug_abbrev  0x00004fd8       0xba C:/Program Files (x86)/Nsi/powerpc-eabispe/bin/../lib/gcc/powerpc-eabispe/3.4.4\libgcc.a(_thenan_df.o)
 .debug_abbrev  0x00005092       0x14 C:/Program Files (x86)/Nsi/powerpc-eabispe/bin/../lib/gcc/powerpc-eabispe/3.4.4\libgcc.a(eabi.o)
 .debug_abbrev  0x000050a6       0xec C:/Program Files (x86)/Nsi/powerpc-eabispe/bin/../lib/gcc/powerpc-eabispe/3.4.4\libgcc.a(_lshrdi3.o)
 .debug_abbrev  0x00005192      0x114 C:/Program Files (x86)/Nsi/powerpc-eabispe/bin/../lib/gcc/powerpc-eabispe/3.4.4\libgcc.a(_unpack_sf.o)
 .debug_abbrev  0x000052a6      0x100 C:/Program Files (x86)/Nsi/powerpc-eabispe/bin/../lib/gcc/powerpc-eabispe/3.4.4\libgcc.a(_make_sf.o)
 .debug_abbrev  0x000053a6      0x176 C:/Program Files (x86)/Nsi/powerpc-eabispe/bin/../lib/gcc/powerpc-eabispe/3.4.4\libgcc.a(_pack_df.o)
 .debug_abbrev  0x0000551c      0x114 C:/Program Files (x86)/Nsi/powerpc-eabispe/bin/../lib/gcc/powerpc-eabispe/3.4.4\libgcc.a(_unpack_df.o)
 .debug_abbrev  0x00005630      0x12a C:/Program Files (x86)/Nsi/powerpc-eabispe/bin/../lib/gcc/powerpc-eabispe/3.4.4\libgcc.a(_fpcmp_parts_df.o)
 .debug_abbrev  0x0000575a       0xec C:/Program Files (x86)/Nsi/powerpc-eabispe/bin/../lib/gcc/powerpc-eabispe/3.4.4\libgcc.a(_ashldi3.o)
 .debug_abbrev  0x00005846      0x174 C:/Program Files (x86)/Nsi/powerpc-eabispe/bin/../lib/gcc/powerpc-eabispe/3.4.4\libgcc.a(_pack_sf.o)

.debug_line     0x00000000     0x6c2f
 *(.debug_line)
 .debug_line    0x00000000       0x3f ./obj/CAN_INIT.o
 .debug_line    0x0000003f       0x88 ./obj/CRCJ1850.o
 .debug_line    0x000000c7      0x511 ./obj/DiagnosticsCAN.o
 .debug_line    0x000005d8       0xc4 ./obj/FlashData.o
 .debug_line    0x0000069c       0x5c ./obj/LIN_INIT.o
 .debug_line    0x000006f8      0xc00 ./obj/MainTask.o
 .debug_line    0x000012f8      0x408 ./obj/TBRe_Mod.o
 .debug_line    0x00001700       0xab ./obj/TBRe_Mod_data.o
 .debug_line    0x000017ab       0x6d ./obj/main.o
 .debug_line    0x00001818      0x13e ./obj/rtGetInf.o
 .debug_line    0x00001956      0x129 ./obj/rtGetNaN.o
 .debug_line    0x00001a7f       0xfa ./obj/rt_nonfinite.o
 .debug_line    0x00001b79       0x4e ./obj/__start.o
 .debug_line    0x00001bc7      0x171 ./obj/mpc5500_asmcfg.o
 .debug_line    0x00001d38       0x86 ./obj/APP_DiagnosticsCAN.o
 .debug_line    0x00001dbe       0x81 ./obj/APP_MainTask.o
 .debug_line    0x00001e3f       0xdc ./obj/APP_Tasks.o
 .debug_line    0x00001f1b       0x81 ../../prjgcc/MUXlab4/lib\libMUXlab4p.a(ADC_HAL.MUXLAB4p.o)
 .debug_line    0x00001f9c      0x354 ../../prjgcc/MUXlab4/lib\libMUXlab4p.a(CAN_HAL.MUXLAB4p.o)
 .debug_line    0x000022f0      0x29a ../../prjgcc/MUXlab4/lib\libMUXlab4p.a(CAN_J1939.MUXLAB4p.o)
 .debug_line    0x0000258a       0xc0 ../../prjgcc/MUXlab4/lib\libMUXlab4p.a(CCP_HAL.MUXLAB4p.o)
 .debug_line    0x0000264a       0xc8 ../../prjgcc/MUXlab4/lib\libMUXlab4p.a(DAC_HAL.MUXLAB4p.o)
 .debug_line    0x00002712      0x194 ../../prjgcc/MUXlab4/lib\libMUXlab4p.a(eTPU_HAL.MUXLAB4p.o)
 .debug_line    0x000028a6      0x44f ../../prjgcc/MUXlab4/lib\libMUXlab4p.a(GPIO_HAL.MUXLAB4p.o)
 .debug_line    0x00002cf5       0xfa ../../prjgcc/MUXlab4/lib\libMUXlab4p.a(libMUXlab4.MUXLAB4p.o)
 .debug_line    0x00002def      0x19a ../../prjgcc/MUXlab4/lib\libMUXlab4p.a(LIN_HAL.MUXLAB4p.o)
 .debug_line    0x00002f89      0x10f ../../prjgcc/MUXlab4/lib\libMUXlab4p.a(wakeup_HAL.MUXLAB4p.o)
 .debug_line    0x00003098      0x3ab ../../prjgcc/MUXlab4/lib\libMUXlab4p.a(LIN.MUXLAB4p.o)
 .debug_line    0x00003443      0x296 ../../prjgcc/MUXlab4/lib\libMUXlab4p.a(OS_Core.MUXLAB4p.o)
 .debug_line    0x000036d9       0x41 ../../prjgcc/MUXlab4/lib\libMUXlab4p.a(OS_TimeBase.MUXLAB4p.o)
 .debug_line    0x0000371a      0x1d8 ../../prjgcc/MUXlab4/lib\libMUXlab4p.a(SPI.MUXLAB4p.o)
 .debug_line    0x000038f2       0x48 ../../prjgcc/MUXlab4/lib\libMUXlab4p.a(IRQ.MUXLAB4p.o)
 .debug_line    0x0000393a       0xe9 ../../prjgcc/MUXlab4/lib\libMUXlab4p.a(mpc5500_ccdcfg.MUXLAB4p.o)
 .debug_line    0x00003a23      0x981 ../../prjgcc/MUXlab4/lib\libMUXlab4p.a(USB.MUXLAB4p.o)
 .debug_line    0x000043a4       0x7a ../../prjgcc/MUXlab4/lib\libMUXlab4p.a(handlers.MUXLAB4p.o)
 .debug_line    0x0000441e       0x3d ../../prjgcc/MUXlab4/lib\libMUXlab4p.a(tb.MUXLAB4p.o)
 .debug_line    0x0000445b      0x2ee ../../prjgcc/MUXlab4/lib\libMUXlab4p.a(CCP.MUXLAB4p.o)
 .debug_line    0x00004749       0xd6 ../../prjgcc/MUXlab4/lib\libMUXlab4p.a(ADC.MUXLAB4p.o)
 .debug_line    0x0000481f      0x3cd ../../prjgcc/MUXlab4/lib\libMUXlab4p.a(can.MUXLAB4p.o)
 .debug_line    0x00004bec      0x12b ../../prjgcc/MUXlab4/lib\libMUXlab4p.a(fifoCan.MUXLAB4p.o)
 .debug_line    0x00004d17      0x121 ../../prjgcc/MUXlab4/lib\libMUXlab4p.a(EMIOS.MUXLAB4p.o)
 .debug_line    0x00004e38      0x2df ../../prjgcc/MUXlab4/lib\libMUXlab4p.a(etpu_util.MUXLAB4p.o)
 .debug_line    0x00005117       0xe0 ../../prjgcc/MUXlab4/lib\libMUXlab4p.a(etpu_fpm.MUXLAB4p.o)
 .debug_line    0x000051f7      0x101 ../../prjgcc/MUXlab4/lib\libMUXlab4p.a(etpu_pwm.MUXLAB4p.o)
 .debug_line    0x000052f8       0xc8 ../../prjgcc/MUXlab4/lib\libMUXlab4p.a(etpu_ppa.MUXLAB4p.o)
 .debug_line    0x000053c0       0xc2 ../../prjgcc/MUXlab4/lib\libMUXlab4p.a(flash.MUXLAB4p.o)
 .debug_line    0x00005482       0x55 ../../prjgcc/MUXlab4/lib\libMUXlab4p.a(GPIO.MUXLAB4p.o)
 .debug_line    0x000054d7       0x73 ../../prjgcc/MUXlab4/lib\libMUXlab4p.a(IntcIsrVectors.MUXLAB4p.o)
 .debug_line    0x0000554a      0x357 ../../prjgcc/MUXlab4/lib\libMUXlab4p.a(GasSensor.MUXLAB4p.o)
 .debug_line    0x000058a1       0xe6 ../../prjgcc/MUXlab4/lib\libMUXlab4p.a(SoftSPI.MUXLAB4p.o)
 .debug_line    0x00005987       0x7c C:/Program Files (x86)/Nsi/powerpc-eabispe/bin/../lib/gcc/powerpc-eabispe/3.4.4\libgcc.a(_fixunsdfsi.o)
 .debug_line    0x00005a03      0x114 C:/Program Files (x86)/Nsi/powerpc-eabispe/bin/../lib/gcc/powerpc-eabispe/3.4.4\libgcc.a(_udivdi3.o)
 .debug_line    0x00005b17      0x114 C:/Program Files (x86)/Nsi/powerpc-eabispe/bin/../lib/gcc/powerpc-eabispe/3.4.4\libgcc.a(_umoddi3.o)
 .debug_line    0x00005c2b       0x7c C:/Program Files (x86)/Nsi/powerpc-eabispe/bin/../lib/gcc/powerpc-eabispe/3.4.4\libgcc.a(_sf_to_df.o)
 .debug_line    0x00005ca7      0x15a C:/Program Files (x86)/Nsi/powerpc-eabispe/bin/../lib/gcc/powerpc-eabispe/3.4.4\libgcc.a(_addsub_df.o)
 .debug_line    0x00005e01      0x17b C:/Program Files (x86)/Nsi/powerpc-eabispe/bin/../lib/gcc/powerpc-eabispe/3.4.4\libgcc.a(_mul_df.o)
 .debug_line    0x00005f7c       0xfe C:/Program Files (x86)/Nsi/powerpc-eabispe/bin/../lib/gcc/powerpc-eabispe/3.4.4\libgcc.a(_div_df.o)
 .debug_line    0x0000607a       0xa0 C:/Program Files (x86)/Nsi/powerpc-eabispe/bin/../lib/gcc/powerpc-eabispe/3.4.4\libgcc.a(_eq_df.o)
 .debug_line    0x0000611a       0xa0 C:/Program Files (x86)/Nsi/powerpc-eabispe/bin/../lib/gcc/powerpc-eabispe/3.4.4\libgcc.a(_ne_df.o)
 .debug_line    0x000061ba       0xa0 C:/Program Files (x86)/Nsi/powerpc-eabispe/bin/../lib/gcc/powerpc-eabispe/3.4.4\libgcc.a(_gt_df.o)
 .debug_line    0x0000625a       0xa0 C:/Program Files (x86)/Nsi/powerpc-eabispe/bin/../lib/gcc/powerpc-eabispe/3.4.4\libgcc.a(_ge_df.o)
 .debug_line    0x000062fa       0xa0 C:/Program Files (x86)/Nsi/powerpc-eabispe/bin/../lib/gcc/powerpc-eabispe/3.4.4\libgcc.a(_lt_df.o)
 .debug_line    0x0000639a       0x98 C:/Program Files (x86)/Nsi/powerpc-eabispe/bin/../lib/gcc/powerpc-eabispe/3.4.4\libgcc.a(_si_to_df.o)
 .debug_line    0x00006432       0xac C:/Program Files (x86)/Nsi/powerpc-eabispe/bin/../lib/gcc/powerpc-eabispe/3.4.4\libgcc.a(_df_to_si.o)
 .debug_line    0x000064de       0x80 C:/Program Files (x86)/Nsi/powerpc-eabispe/bin/../lib/gcc/powerpc-eabispe/3.4.4\libgcc.a(_make_df.o)
 .debug_line    0x0000655e       0x8e C:/Program Files (x86)/Nsi/powerpc-eabispe/bin/../lib/gcc/powerpc-eabispe/3.4.4\libgcc.a(_df_to_sf.o)
 .debug_line    0x000065ec       0x66 C:/Program Files (x86)/Nsi/powerpc-eabispe/bin/../lib/gcc/powerpc-eabispe/3.4.4\libgcc.a(_thenan_df.o)
 .debug_line    0x00006652       0x67 C:/Program Files (x86)/Nsi/powerpc-eabispe/bin/../lib/gcc/powerpc-eabispe/3.4.4\libgcc.a(eabi.o)
 .debug_line    0x000066b9       0x8e C:/Program Files (x86)/Nsi/powerpc-eabispe/bin/../lib/gcc/powerpc-eabispe/3.4.4\libgcc.a(_lshrdi3.o)
 .debug_line    0x00006747       0xa3 C:/Program Files (x86)/Nsi/powerpc-eabispe/bin/../lib/gcc/powerpc-eabispe/3.4.4\libgcc.a(_unpack_sf.o)
 .debug_line    0x000067ea       0x80 C:/Program Files (x86)/Nsi/powerpc-eabispe/bin/../lib/gcc/powerpc-eabispe/3.4.4\libgcc.a(_make_sf.o)
 .debug_line    0x0000686a       0xe3 C:/Program Files (x86)/Nsi/powerpc-eabispe/bin/../lib/gcc/powerpc-eabispe/3.4.4\libgcc.a(_pack_df.o)
 .debug_line    0x0000694d       0xae C:/Program Files (x86)/Nsi/powerpc-eabispe/bin/../lib/gcc/powerpc-eabispe/3.4.4\libgcc.a(_unpack_df.o)
 .debug_line    0x000069fb       0xd4 C:/Program Files (x86)/Nsi/powerpc-eabispe/bin/../lib/gcc/powerpc-eabispe/3.4.4\libgcc.a(_fpcmp_parts_df.o)
 .debug_line    0x00006acf       0x8e C:/Program Files (x86)/Nsi/powerpc-eabispe/bin/../lib/gcc/powerpc-eabispe/3.4.4\libgcc.a(_ashldi3.o)
 .debug_line    0x00006b5d       0xd2 C:/Program Files (x86)/Nsi/powerpc-eabispe/bin/../lib/gcc/powerpc-eabispe/3.4.4\libgcc.a(_pack_sf.o)

.debug_frame    0x00000000     0x3104
 *(.debug_frame)
 .debug_frame   0x00000000       0x30 ./obj/CAN_INIT.o
 .debug_frame   0x00000030       0x3c ./obj/CRCJ1850.o
 .debug_frame   0x0000006c       0xa0 ./obj/DiagnosticsCAN.o
 .debug_frame   0x0000010c       0x20 ./obj/FlashData.o
 .debug_frame   0x0000012c       0x28 ./obj/LIN_INIT.o
 .debug_frame   0x00000154      0x118 ./obj/MainTask.o
 .debug_frame   0x0000026c      0x190 ./obj/TBRe_Mod.o
 .debug_frame   0x000003fc       0x30 ./obj/main.o
 .debug_frame   0x0000042c       0x60 ./obj/rtGetInf.o
 .debug_frame   0x0000048c       0x40 ./obj/rtGetNaN.o
 .debug_frame   0x000004cc       0x9c ./obj/rt_nonfinite.o
 .debug_frame   0x00000568       0x30 ./obj/APP_DiagnosticsCAN.o
 .debug_frame   0x00000598       0x30 ./obj/APP_MainTask.o
 .debug_frame   0x000005c8       0x48 ./obj/APP_Tasks.o
 .debug_frame   0x00000610       0xa0 ../../prjgcc/MUXlab4/lib\libMUXlab4p.a(ADC_HAL.MUXLAB4p.o)
 .debug_frame   0x000006b0      0x32c ../../prjgcc/MUXlab4/lib\libMUXlab4p.a(CAN_HAL.MUXLAB4p.o)
 .debug_frame   0x000009dc      0x1f0 ../../prjgcc/MUXlab4/lib\libMUXlab4p.a(CAN_J1939.MUXLAB4p.o)
 .debug_frame   0x00000bcc       0x48 ../../prjgcc/MUXlab4/lib\libMUXlab4p.a(CCP_HAL.MUXLAB4p.o)
 .debug_frame   0x00000c14       0x54 ../../prjgcc/MUXlab4/lib\libMUXlab4p.a(DAC_HAL.MUXLAB4p.o)
 .debug_frame   0x00000c68       0xe0 ../../prjgcc/MUXlab4/lib\libMUXlab4p.a(eTPU_HAL.MUXLAB4p.o)
 .debug_frame   0x00000d48      0x17c ../../prjgcc/MUXlab4/lib\libMUXlab4p.a(GPIO_HAL.MUXLAB4p.o)
 .debug_frame   0x00000ec4       0x60 ../../prjgcc/MUXlab4/lib\libMUXlab4p.a(libMUXlab4.MUXLAB4p.o)
 .debug_frame   0x00000f24      0x114 ../../prjgcc/MUXlab4/lib\libMUXlab4p.a(LIN_HAL.MUXLAB4p.o)
 .debug_frame   0x00001038       0x4c ../../prjgcc/MUXlab4/lib\libMUXlab4p.a(wakeup_HAL.MUXLAB4p.o)
 .debug_frame   0x00001084      0x1ac ../../prjgcc/MUXlab4/lib\libMUXlab4p.a(LIN.MUXLAB4p.o)
 .debug_frame   0x00001230      0x1dc ../../prjgcc/MUXlab4/lib\libMUXlab4p.a(OS_Core.MUXLAB4p.o)
 .debug_frame   0x0000140c       0x20 ../../prjgcc/MUXlab4/lib\libMUXlab4p.a(OS_TimeBase.MUXLAB4p.o)
 .debug_frame   0x0000142c      0x124 ../../prjgcc/MUXlab4/lib\libMUXlab4p.a(SPI.MUXLAB4p.o)
 .debug_frame   0x00001550       0x30 ../../prjgcc/MUXlab4/lib\libMUXlab4p.a(IRQ.MUXLAB4p.o)
 .debug_frame   0x00001580      0x140 ../../prjgcc/MUXlab4/lib\libMUXlab4p.a(mpc5500_ccdcfg.MUXLAB4p.o)
 .debug_frame   0x000016c0      0x500 ../../prjgcc/MUXlab4/lib\libMUXlab4p.a(USB.MUXLAB4p.o)
 .debug_frame   0x00001bc0      0x214 ../../prjgcc/MUXlab4/lib\libMUXlab4p.a(CCP.MUXLAB4p.o)
 .debug_frame   0x00001dd4       0x50 ../../prjgcc/MUXlab4/lib\libMUXlab4p.a(ADC.MUXLAB4p.o)
 .debug_frame   0x00001e24      0x248 ../../prjgcc/MUXlab4/lib\libMUXlab4p.a(can.MUXLAB4p.o)
 .debug_frame   0x0000206c       0x8c ../../prjgcc/MUXlab4/lib\libMUXlab4p.a(fifoCan.MUXLAB4p.o)
 .debug_frame   0x000020f8       0x90 ../../prjgcc/MUXlab4/lib\libMUXlab4p.a(EMIOS.MUXLAB4p.o)
 .debug_frame   0x00002188      0x448 ../../prjgcc/MUXlab4/lib\libMUXlab4p.a(etpu_util.MUXLAB4p.o)
 .debug_frame   0x000025d0       0xfc ../../prjgcc/MUXlab4/lib\libMUXlab4p.a(etpu_fpm.MUXLAB4p.o)
 .debug_frame   0x000026cc      0x128 ../../prjgcc/MUXlab4/lib\libMUXlab4p.a(etpu_pwm.MUXLAB4p.o)
 .debug_frame   0x000027f4       0xc0 ../../prjgcc/MUXlab4/lib\libMUXlab4p.a(etpu_ppa.MUXLAB4p.o)
 .debug_frame   0x000028b4       0x58 ../../prjgcc/MUXlab4/lib\libMUXlab4p.a(flash.MUXLAB4p.o)
 .debug_frame   0x0000290c       0x30 ../../prjgcc/MUXlab4/lib\libMUXlab4p.a(GPIO.MUXLAB4p.o)
 .debug_frame   0x0000293c       0x20 ../../prjgcc/MUXlab4/lib\libMUXlab4p.a(IntcIsrVectors.MUXLAB4p.o)
 .debug_frame   0x0000295c      0x1d4 ../../prjgcc/MUXlab4/lib\libMUXlab4p.a(GasSensor.MUXLAB4p.o)
 .debug_frame   0x00002b30       0x88 ../../prjgcc/MUXlab4/lib\libMUXlab4p.a(SoftSPI.MUXLAB4p.o)
 .debug_frame   0x00002bb8       0x38 C:/Program Files (x86)/Nsi/powerpc-eabispe/bin/../lib/gcc/powerpc-eabispe/3.4.4\libgcc.a(_fixunsdfsi.o)
 .debug_frame   0x00002bf0       0x34 C:/Program Files (x86)/Nsi/powerpc-eabispe/bin/../lib/gcc/powerpc-eabispe/3.4.4\libgcc.a(_udivdi3.o)
 .debug_frame   0x00002c24       0x44 C:/Program Files (x86)/Nsi/powerpc-eabispe/bin/../lib/gcc/powerpc-eabispe/3.4.4\libgcc.a(_umoddi3.o)
 .debug_frame   0x00002c68       0x30 C:/Program Files (x86)/Nsi/powerpc-eabispe/bin/../lib/gcc/powerpc-eabispe/3.4.4\libgcc.a(_sf_to_df.o)
 .debug_frame   0x00002c98       0xa0 C:/Program Files (x86)/Nsi/powerpc-eabispe/bin/../lib/gcc/powerpc-eabispe/3.4.4\libgcc.a(_addsub_df.o)
 .debug_frame   0x00002d38       0x54 C:/Program Files (x86)/Nsi/powerpc-eabispe/bin/../lib/gcc/powerpc-eabispe/3.4.4\libgcc.a(_mul_df.o)
 .debug_frame   0x00002d8c       0x48 C:/Program Files (x86)/Nsi/powerpc-eabispe/bin/../lib/gcc/powerpc-eabispe/3.4.4\libgcc.a(_div_df.o)
 .debug_frame   0x00002dd4       0x40 C:/Program Files (x86)/Nsi/powerpc-eabispe/bin/../lib/gcc/powerpc-eabispe/3.4.4\libgcc.a(_eq_df.o)
 .debug_frame   0x00002e14       0x40 C:/Program Files (x86)/Nsi/powerpc-eabispe/bin/../lib/gcc/powerpc-eabispe/3.4.4\libgcc.a(_ne_df.o)
 .debug_frame   0x00002e54       0x40 C:/Program Files (x86)/Nsi/powerpc-eabispe/bin/../lib/gcc/powerpc-eabispe/3.4.4\libgcc.a(_gt_df.o)
 .debug_frame   0x00002e94       0x40 C:/Program Files (x86)/Nsi/powerpc-eabispe/bin/../lib/gcc/powerpc-eabispe/3.4.4\libgcc.a(_ge_df.o)
 .debug_frame   0x00002ed4       0x40 C:/Program Files (x86)/Nsi/powerpc-eabispe/bin/../lib/gcc/powerpc-eabispe/3.4.4\libgcc.a(_lt_df.o)
 .debug_frame   0x00002f14       0x30 C:/Program Files (x86)/Nsi/powerpc-eabispe/bin/../lib/gcc/powerpc-eabispe/3.4.4\libgcc.a(_si_to_df.o)
 .debug_frame   0x00002f44       0x30 C:/Program Files (x86)/Nsi/powerpc-eabispe/bin/../lib/gcc/powerpc-eabispe/3.4.4\libgcc.a(_df_to_si.o)
 .debug_frame   0x00002f74       0x30 C:/Program Files (x86)/Nsi/powerpc-eabispe/bin/../lib/gcc/powerpc-eabispe/3.4.4\libgcc.a(_make_df.o)
 .debug_frame   0x00002fa4       0x30 C:/Program Files (x86)/Nsi/powerpc-eabispe/bin/../lib/gcc/powerpc-eabispe/3.4.4\libgcc.a(_df_to_sf.o)
 .debug_frame   0x00002fd4       0x20 C:/Program Files (x86)/Nsi/powerpc-eabispe/bin/../lib/gcc/powerpc-eabispe/3.4.4\libgcc.a(_lshrdi3.o)
 .debug_frame   0x00002ff4       0x20 C:/Program Files (x86)/Nsi/powerpc-eabispe/bin/../lib/gcc/powerpc-eabispe/3.4.4\libgcc.a(_unpack_sf.o)
 .debug_frame   0x00003014       0x30 C:/Program Files (x86)/Nsi/powerpc-eabispe/bin/../lib/gcc/powerpc-eabispe/3.4.4\libgcc.a(_make_sf.o)
 .debug_frame   0x00003044       0x40 C:/Program Files (x86)/Nsi/powerpc-eabispe/bin/../lib/gcc/powerpc-eabispe/3.4.4\libgcc.a(_pack_df.o)
 .debug_frame   0x00003084       0x20 C:/Program Files (x86)/Nsi/powerpc-eabispe/bin/../lib/gcc/powerpc-eabispe/3.4.4\libgcc.a(_unpack_df.o)
 .debug_frame   0x000030a4       0x20 C:/Program Files (x86)/Nsi/powerpc-eabispe/bin/../lib/gcc/powerpc-eabispe/3.4.4\libgcc.a(_fpcmp_parts_df.o)
 .debug_frame   0x000030c4       0x20 C:/Program Files (x86)/Nsi/powerpc-eabispe/bin/../lib/gcc/powerpc-eabispe/3.4.4\libgcc.a(_ashldi3.o)
 .debug_frame   0x000030e4       0x20 C:/Program Files (x86)/Nsi/powerpc-eabispe/bin/../lib/gcc/powerpc-eabispe/3.4.4\libgcc.a(_pack_sf.o)

.debug_str      0x00000000     0xae40
 *(.debug_str)
 .debug_str     0x00000000       0xb2 ./obj/CAN_INIT.o
                                 0xcb (size before relaxing)
 .debug_str     0x000000b2       0x44 ./obj/CRCJ1850.o
                                0x11c (size before relaxing)
 .debug_str     0x000000f6      0xf05 ./obj/DiagnosticsCAN.o
                               0x1053 (size before relaxing)
 .debug_str     0x00000ffb      0x343 ./obj/FlashData.o
                               0x1052 (size before relaxing)
 .debug_str     0x0000133e       0x24 ./obj/LIN_INIT.o
                                0x127 (size before relaxing)
 .debug_str     0x00001362      0x7ee ./obj/MainTask.o
                               0x17d4 (size before relaxing)
 .debug_str     0x00001b50     0x320a ./obj/TBRe_Mod.o
                               0x4295 (size before relaxing)
 .debug_str     0x00004d5a       0x14 ./obj/TBRe_Mod_data.o
                                0x20c (size before relaxing)
 .debug_str     0x00004d6e       0x27 ./obj/main.o
                                0x721 (size before relaxing)
 .debug_str     0x00004d95       0xec ./obj/rtGetInf.o
                                0x204 (size before relaxing)
 .debug_str     0x00004e81       0x27 ./obj/rtGetNaN.o
                                0x1dc (size before relaxing)
 .debug_str     0x00004ea8       0x86 ./obj/rt_nonfinite.o
                                0x191 (size before relaxing)
 .debug_str     0x00004f2e       0x41 ./obj/APP_DiagnosticsCAN.o
                                0x12a (size before relaxing)
 .debug_str     0x00004f6f       0x2f ./obj/APP_MainTask.o
                                0x118 (size before relaxing)
 .debug_str     0x00004f9e       0x60 ./obj/APP_Tasks.o
                                0x165 (size before relaxing)
 .debug_str     0x00004ffe       0xe2 ../../prjgcc/MUXlab4/lib\libMUXlab4p.a(ADC_HAL.MUXLAB4p.o)
                                0x166 (size before relaxing)
 .debug_str     0x000050e0      0xb2c ../../prjgcc/MUXlab4/lib\libMUXlab4p.a(CAN_HAL.MUXLAB4p.o)
                                0xd54 (size before relaxing)
 .debug_str     0x00005c0c      0x33a ../../prjgcc/MUXlab4/lib\libMUXlab4p.a(CAN_J1939.MUXLAB4p.o)
                                0xb4b (size before relaxing)
 .debug_str     0x00005f46       0x7d ../../prjgcc/MUXlab4/lib\libMUXlab4p.a(CCP_HAL.MUXLAB4p.o)
                                0x272 (size before relaxing)
 .debug_str     0x00005fc3       0xae ../../prjgcc/MUXlab4/lib\libMUXlab4p.a(DAC_HAL.MUXLAB4p.o)
                                0x1b4 (size before relaxing)
 .debug_str     0x00006071      0x1fd ../../prjgcc/MUXlab4/lib\libMUXlab4p.a(eTPU_HAL.MUXLAB4p.o)
                                0x35b (size before relaxing)
 .debug_str     0x0000626e      0x440 ../../prjgcc/MUXlab4/lib\libMUXlab4p.a(GPIO_HAL.MUXLAB4p.o)
                                0xbd0 (size before relaxing)
 .debug_str     0x000066ae      0x137 ../../prjgcc/MUXlab4/lib\libMUXlab4p.a(libMUXlab4.MUXLAB4p.o)
                                0x287 (size before relaxing)
 .debug_str     0x000067e5      0x719 ../../prjgcc/MUXlab4/lib\libMUXlab4p.a(LIN_HAL.MUXLAB4p.o)
                                0x8fa (size before relaxing)
 .debug_str     0x00006efe       0xd5 ../../prjgcc/MUXlab4/lib\libMUXlab4p.a(wakeup_HAL.MUXLAB4p.o)
                                0x369 (size before relaxing)
 .debug_str     0x00006fd3      0x2d9 ../../prjgcc/MUXlab4/lib\libMUXlab4p.a(LIN.MUXLAB4p.o)
                                0x852 (size before relaxing)
 .debug_str     0x000072ac      0x50e ../../prjgcc/MUXlab4/lib\libMUXlab4p.a(OS_Core.MUXLAB4p.o)
                                0x663 (size before relaxing)
 .debug_str     0x000077ba       0x24 ../../prjgcc/MUXlab4/lib\libMUXlab4p.a(OS_TimeBase.MUXLAB4p.o)
                                 0xfb (size before relaxing)
 .debug_str     0x000077de      0x38b ../../prjgcc/MUXlab4/lib\libMUXlab4p.a(SPI.MUXLAB4p.o)
                                0x5e3 (size before relaxing)
 .debug_str     0x00007b69       0x3f ../../prjgcc/MUXlab4/lib\libMUXlab4p.a(IRQ.MUXLAB4p.o)
                                0x116 (size before relaxing)
 .debug_str     0x00007ba8      0x200 ../../prjgcc/MUXlab4/lib\libMUXlab4p.a(mpc5500_ccdcfg.MUXLAB4p.o)
                                0x2ef (size before relaxing)
 .debug_str     0x00007da8      0x66a ../../prjgcc/MUXlab4/lib\libMUXlab4p.a(USB.MUXLAB4p.o)
                                0xb24 (size before relaxing)
 .debug_str     0x00008412      0x2d9 ../../prjgcc/MUXlab4/lib\libMUXlab4p.a(CCP.MUXLAB4p.o)
                                0x51e (size before relaxing)
 .debug_str     0x000086eb      0x1ce ../../prjgcc/MUXlab4/lib\libMUXlab4p.a(ADC.MUXLAB4p.o)
                                0x2d3 (size before relaxing)
 .debug_str     0x000088b9      0x410 ../../prjgcc/MUXlab4/lib\libMUXlab4p.a(can.MUXLAB4p.o)
                                0xe2c (size before relaxing)
 .debug_str     0x00008cc9       0xaa ../../prjgcc/MUXlab4/lib\libMUXlab4p.a(fifoCan.MUXLAB4p.o)
                                0x872 (size before relaxing)
 .debug_str     0x00008d73      0x13b ../../prjgcc/MUXlab4/lib\libMUXlab4p.a(EMIOS.MUXLAB4p.o)
                                0x240 (size before relaxing)
 .debug_str     0x00008eae     0x1073 ../../prjgcc/MUXlab4/lib\libMUXlab4p.a(etpu_util.MUXLAB4p.o)
                               0x1277 (size before relaxing)
 .debug_str     0x00009f21       0xca ../../prjgcc/MUXlab4/lib\libMUXlab4p.a(etpu_fpm.MUXLAB4p.o)
                                0xc73 (size before relaxing)
 .debug_str     0x00009feb       0x85 ../../prjgcc/MUXlab4/lib\libMUXlab4p.a(etpu_pwm.MUXLAB4p.o)
                                0xc4c (size before relaxing)
 .debug_str     0x0000a070       0x8d ../../prjgcc/MUXlab4/lib\libMUXlab4p.a(etpu_ppa.MUXLAB4p.o)
                                0xc3b (size before relaxing)
 .debug_str     0x0000a0fd       0xc7 ../../prjgcc/MUXlab4/lib\libMUXlab4p.a(flash.MUXLAB4p.o)
                                0x1f2 (size before relaxing)
 .debug_str     0x0000a1c4       0x64 ../../prjgcc/MUXlab4/lib\libMUXlab4p.a(GPIO.MUXLAB4p.o)
                                0x13b (size before relaxing)
 .debug_str     0x0000a228       0x1a ../../prjgcc/MUXlab4/lib\libMUXlab4p.a(IntcIsrVectors.MUXLAB4p.o)
                                0x13c (size before relaxing)
 .debug_str     0x0000a242      0x70a ../../prjgcc/MUXlab4/lib\libMUXlab4p.a(GasSensor.MUXLAB4p.o)
                                0x82c (size before relaxing)
 .debug_str     0x0000a94c      0x17c ../../prjgcc/MUXlab4/lib\libMUXlab4p.a(SoftSPI.MUXLAB4p.o)
                                0x29c (size before relaxing)
 .debug_str     0x0000aac8       0x77 C:/Program Files (x86)/Nsi/powerpc-eabispe/bin/../lib/gcc/powerpc-eabispe/3.4.4\libgcc.a(_fixunsdfsi.o)
                                0x117 (size before relaxing)
 .debug_str     0x0000ab3f       0x5d C:/Program Files (x86)/Nsi/powerpc-eabispe/bin/../lib/gcc/powerpc-eabispe/3.4.4\libgcc.a(_udivdi3.o)
                                0x16e (size before relaxing)
 .debug_str     0x0000ab9c        0xa C:/Program Files (x86)/Nsi/powerpc-eabispe/bin/../lib/gcc/powerpc-eabispe/3.4.4\libgcc.a(_umoddi3.o)
                                0x16e (size before relaxing)
 .debug_str     0x0000aba6       0xcc C:/Program Files (x86)/Nsi/powerpc-eabispe/bin/../lib/gcc/powerpc-eabispe/3.4.4\libgcc.a(_sf_to_df.o)
                                0x19f (size before relaxing)
 .debug_str     0x0000ac72       0x87 C:/Program Files (x86)/Nsi/powerpc-eabispe/bin/../lib/gcc/powerpc-eabispe/3.4.4\libgcc.a(_addsub_df.o)
                                0x209 (size before relaxing)
 .debug_str     0x0000acf9       0x40 C:/Program Files (x86)/Nsi/powerpc-eabispe/bin/../lib/gcc/powerpc-eabispe/3.4.4\libgcc.a(_mul_df.o)
                                0x1e1 (size before relaxing)
 .debug_str     0x0000ad39       0x35 C:/Program Files (x86)/Nsi/powerpc-eabispe/bin/../lib/gcc/powerpc-eabispe/3.4.4\libgcc.a(_div_df.o)
                                0x1d1 (size before relaxing)
 .debug_str     0x0000ad6e        0x8 C:/Program Files (x86)/Nsi/powerpc-eabispe/bin/../lib/gcc/powerpc-eabispe/3.4.4\libgcc.a(_eq_df.o)
                                0x1a5 (size before relaxing)
 .debug_str     0x0000ad76        0x8 C:/Program Files (x86)/Nsi/powerpc-eabispe/bin/../lib/gcc/powerpc-eabispe/3.4.4\libgcc.a(_ne_df.o)
                                0x1a5 (size before relaxing)
 .debug_str     0x0000ad7e        0x8 C:/Program Files (x86)/Nsi/powerpc-eabispe/bin/../lib/gcc/powerpc-eabispe/3.4.4\libgcc.a(_gt_df.o)
                                0x1a5 (size before relaxing)
 .debug_str     0x0000ad86        0x8 C:/Program Files (x86)/Nsi/powerpc-eabispe/bin/../lib/gcc/powerpc-eabispe/3.4.4\libgcc.a(_ge_df.o)
                                0x1a5 (size before relaxing)
 .debug_str     0x0000ad8e        0x8 C:/Program Files (x86)/Nsi/powerpc-eabispe/bin/../lib/gcc/powerpc-eabispe/3.4.4\libgcc.a(_lt_df.o)
                                0x1a5 (size before relaxing)
 .debug_str     0x0000ad96        0xc C:/Program Files (x86)/Nsi/powerpc-eabispe/bin/../lib/gcc/powerpc-eabispe/3.4.4\libgcc.a(_si_to_df.o)
                                0x17e (size before relaxing)
 .debug_str     0x0000ada2       0x11 C:/Program Files (x86)/Nsi/powerpc-eabispe/bin/../lib/gcc/powerpc-eabispe/3.4.4\libgcc.a(_df_to_si.o)
                                0x1a8 (size before relaxing)
 .debug_str     0x0000adb3        0xa C:/Program Files (x86)/Nsi/powerpc-eabispe/bin/../lib/gcc/powerpc-eabispe/3.4.4\libgcc.a(_make_df.o)
                                0x16b (size before relaxing)
 .debug_str     0x0000adbd       0x14 C:/Program Files (x86)/Nsi/powerpc-eabispe/bin/../lib/gcc/powerpc-eabispe/3.4.4\libgcc.a(_df_to_sf.o)
                                0x1ab (size before relaxing)
 .debug_str     0x0000add1        0x0 C:/Program Files (x86)/Nsi/powerpc-eabispe/bin/../lib/gcc/powerpc-eabispe/3.4.4\libgcc.a(_thenan_df.o)
                                0x155 (size before relaxing)
 .debug_str     0x0000add1       0x1c C:/Program Files (x86)/Nsi/powerpc-eabispe/bin/../lib/gcc/powerpc-eabispe/3.4.4\libgcc.a(_lshrdi3.o)
                                0x143 (size before relaxing)
 .debug_str     0x0000aded        0xb C:/Program Files (x86)/Nsi/powerpc-eabispe/bin/../lib/gcc/powerpc-eabispe/3.4.4\libgcc.a(_unpack_sf.o)
                                0x18f (size before relaxing)
 .debug_str     0x0000adf8        0xa C:/Program Files (x86)/Nsi/powerpc-eabispe/bin/../lib/gcc/powerpc-eabispe/3.4.4\libgcc.a(_make_sf.o)
                                0x16b (size before relaxing)
 .debug_str     0x0000ae02       0x10 C:/Program Files (x86)/Nsi/powerpc-eabispe/bin/../lib/gcc/powerpc-eabispe/3.4.4\libgcc.a(_pack_df.o)
                                0x1a6 (size before relaxing)
 .debug_str     0x0000ae12        0xb C:/Program Files (x86)/Nsi/powerpc-eabispe/bin/../lib/gcc/powerpc-eabispe/3.4.4\libgcc.a(_unpack_df.o)
                                0x195 (size before relaxing)
 .debug_str     0x0000ae1d       0x10 C:/Program Files (x86)/Nsi/powerpc-eabispe/bin/../lib/gcc/powerpc-eabispe/3.4.4\libgcc.a(_fpcmp_parts_df.o)
                                0x16b (size before relaxing)
 .debug_str     0x0000ae2d        0xa C:/Program Files (x86)/Nsi/powerpc-eabispe/bin/../lib/gcc/powerpc-eabispe/3.4.4\libgcc.a(_ashldi3.o)
                                0x143 (size before relaxing)
 .debug_str     0x0000ae37        0x9 C:/Program Files (x86)/Nsi/powerpc-eabispe/bin/../lib/gcc/powerpc-eabispe/3.4.4\libgcc.a(_pack_sf.o)
                                0x1a0 (size before relaxing)

.debug_loc
 *(.debug_loc)

.debug_macinfo
 *(.debug_macinfo)

.debug_weaknames
 *(.debug_weaknames)

.debug_funcnames
 *(.debug_funcnames)

.debug_typenames
 *(.debug_typenames)

.debug_varnames
 *(.debug_varnames)

.eh_frame
 *(.eh_frame)
                0x40000000                __SRAM_CPY_START = ADDR (.PPC.EMB.sdata2)
                0x0004cdb0                __IV_ADDR = ADDR (.xcptn)
                0x40008cf4                __SRAM_LOAD = _end
                0x00000003                __SRAM_LOAD_SIZE = (SIZEOF (.flash_data) / 0x4)
                0x000000b4                TEMPSIZE = ((((((SIZEOF (.PPC.EMB.sdata2) + SIZEOF (.sdata2)) + SIZEOF (.PPC.EMB.sbss2)) + SIZEOF (.sbss2)) + SIZEOF (.data)) + SIZEOF (.RAM_Code)) + SIZEOF (.data1))
                0x000000ec                TEMPSIZE = (((((TEMPSIZE + SIZEOF (.got)) + SIZEOF (.got.plt)) + SIZEOF (.got1)) + SIZEOF (.got2)) + SIZEOF (.ctors))
                0x000000d0                TEMPSIZE = ((((TEMPSIZE + SIZEOF (.dtors)) + SIZEOF (.fixup)) + SIZEOF (.dynamic)) + SIZEOF (.plt))
                0x000000d0                TEMPSIZE = ((TEMPSIZE + SIZEOF (.sdata)) + SIZEOF (.PPC.EMB.sdata0))
                0x000000d0                TEMPSIZE2 = (__DATA_ROM_END - __SDATA2_START__)
                0x000000d0                __ROM_COPY_SIZE = TEMPSIZE
                0x00008c22                __BSS_SIZE = ((SIZEOF (.sbss) + SIZEOF (.PPC.EMB.sbss0)) + SIZEOF (.bss))
                0x400000d0                __SBSS_ADDR = ADDR (.sbss)
LOAD C:/Program Files (x86)/Nsi/powerpc-eabispe/bin/../lib/gcc/powerpc-eabispe/3.4.4/../../../../powerpc-eabispe/lib\libm.a
LOAD ./obj/CAN_INIT.o
LOAD ./obj/CRCJ1850.o
LOAD ./obj/DiagnosticsCAN.o
LOAD ./obj/FlashData.o
LOAD ./obj/LIN_INIT.o
LOAD ./obj/MainTask.o
LOAD ./obj/TBRe_Mod.o
LOAD ./obj/TBRe_Mod_data.o
LOAD ./obj/main.o
LOAD ./obj/rtGetInf.o
LOAD ./obj/rtGetNaN.o
LOAD ./obj/rt_nonfinite.o
LOAD ./obj/__start.o
LOAD ./obj/mpc5500_asmcfg.o
LOAD ./obj/APP_DiagnosticsCAN.o
LOAD ./obj/APP_MainTask.o
LOAD ./obj/APP_Tasks.o
LOAD ../../prjgcc/MUXlab4/lib\libMUXlab4p.a
LOAD C:/Program Files (x86)/Nsi/powerpc-eabispe/bin/../lib/gcc/powerpc-eabispe/3.4.4/../../../../powerpc-eabispe/lib\libm.a
LOAD C:/Program Files (x86)/Nsi/powerpc-eabispe/bin/../lib/gcc/powerpc-eabispe/3.4.4\libgcc.a
LOAD C:/Program Files (x86)/Nsi/powerpc-eabispe/bin/../lib/gcc/powerpc-eabispe/3.4.4/../../../../powerpc-eabispe/lib\libc.a
LOAD C:/Program Files (x86)/Nsi/powerpc-eabispe/bin/../lib/gcc/powerpc-eabispe/3.4.4\libgcc.a
LOAD C:/Program Files (x86)/Nsi/powerpc-eabispe/bin/../lib/gcc/powerpc-eabispe/3.4.4\libgcc.a
LOAD C:/Program Files (x86)/Nsi/powerpc-eabispe/bin/../lib/gcc/powerpc-eabispe/3.4.4\libgcc.a
LOAD C:/Program Files (x86)/Nsi/powerpc-eabispe/bin/../lib/gcc/powerpc-eabispe/3.4.4/crtsavres.o
OUTPUT(bin/TBRe_Mod_FLASH.elf elf32-powerpc)

.comment        0x00000000      0xa18
 .comment       0x00000000       0x22 ./obj/CAN_INIT.o
 .comment       0x00000022       0x22 ./obj/CRCJ1850.o
 .comment       0x00000044       0x22 ./obj/DiagnosticsCAN.o
 .comment       0x00000066       0x22 ./obj/FlashData.o
 .comment       0x00000088       0x22 ./obj/LIN_INIT.o
 .comment       0x000000aa       0x22 ./obj/MainTask.o
 .comment       0x000000cc       0x22 ./obj/TBRe_Mod.o
 .comment       0x000000ee       0x22 ./obj/TBRe_Mod_data.o
 .comment       0x00000110       0x22 ./obj/main.o
 .comment       0x00000132       0x22 ./obj/rtGetInf.o
 .comment       0x00000154       0x22 ./obj/rtGetNaN.o
 .comment       0x00000176       0x22 ./obj/rt_nonfinite.o
 .comment       0x00000198       0x22 ./obj/APP_DiagnosticsCAN.o
 .comment       0x000001ba       0x22 ./obj/APP_MainTask.o
 .comment       0x000001dc       0x22 ./obj/APP_Tasks.o
 .comment       0x000001fe       0x22 ../../prjgcc/MUXlab4/lib\libMUXlab4p.a(ADC_HAL.MUXLAB4p.o)
 .comment       0x00000220       0x22 ../../prjgcc/MUXlab4/lib\libMUXlab4p.a(CAN_HAL.MUXLAB4p.o)
 .comment       0x00000242       0x22 ../../prjgcc/MUXlab4/lib\libMUXlab4p.a(CAN_J1939.MUXLAB4p.o)
 .comment       0x00000264       0x22 ../../prjgcc/MUXlab4/lib\libMUXlab4p.a(CCP_HAL.MUXLAB4p.o)
 .comment       0x00000286       0x22 ../../prjgcc/MUXlab4/lib\libMUXlab4p.a(DAC_HAL.MUXLAB4p.o)
 .comment       0x000002a8       0x22 ../../prjgcc/MUXlab4/lib\libMUXlab4p.a(eTPU_HAL.MUXLAB4p.o)
 .comment       0x000002ca       0x22 ../../prjgcc/MUXlab4/lib\libMUXlab4p.a(GPIO_HAL.MUXLAB4p.o)
 .comment       0x000002ec       0x22 ../../prjgcc/MUXlab4/lib\libMUXlab4p.a(libMUXlab4.MUXLAB4p.o)
 .comment       0x0000030e       0x22 ../../prjgcc/MUXlab4/lib\libMUXlab4p.a(LIN_HAL.MUXLAB4p.o)
 .comment       0x00000330       0x22 ../../prjgcc/MUXlab4/lib\libMUXlab4p.a(wakeup_HAL.MUXLAB4p.o)
 .comment       0x00000352       0x22 ../../prjgcc/MUXlab4/lib\libMUXlab4p.a(LIN.MUXLAB4p.o)
 .comment       0x00000374       0x22 ../../prjgcc/MUXlab4/lib\libMUXlab4p.a(OS_Core.MUXLAB4p.o)
 .comment       0x00000396       0x22 ../../prjgcc/MUXlab4/lib\libMUXlab4p.a(OS_TimeBase.MUXLAB4p.o)
 .comment       0x000003b8       0x22 ../../prjgcc/MUXlab4/lib\libMUXlab4p.a(SPI.MUXLAB4p.o)
 .comment       0x000003da       0x22 ../../prjgcc/MUXlab4/lib\libMUXlab4p.a(IRQ.MUXLAB4p.o)
 .comment       0x000003fc       0x22 ../../prjgcc/MUXlab4/lib\libMUXlab4p.a(mpc5500_ccdcfg.MUXLAB4p.o)
 .comment       0x0000041e       0x22 ../../prjgcc/MUXlab4/lib\libMUXlab4p.a(USB.MUXLAB4p.o)
 .comment       0x00000440       0x22 ../../prjgcc/MUXlab4/lib\libMUXlab4p.a(CCP.MUXLAB4p.o)
 .comment       0x00000462       0x22 ../../prjgcc/MUXlab4/lib\libMUXlab4p.a(ADC.MUXLAB4p.o)
 .comment       0x00000484       0x22 ../../prjgcc/MUXlab4/lib\libMUXlab4p.a(can.MUXLAB4p.o)
 .comment       0x000004a6       0x22 ../../prjgcc/MUXlab4/lib\libMUXlab4p.a(fifoCan.MUXLAB4p.o)
 .comment       0x000004c8       0x22 ../../prjgcc/MUXlab4/lib\libMUXlab4p.a(EMIOS.MUXLAB4p.o)
 .comment       0x000004ea       0x22 ../../prjgcc/MUXlab4/lib\libMUXlab4p.a(etpu_util.MUXLAB4p.o)
 .comment       0x0000050c       0x22 ../../prjgcc/MUXlab4/lib\libMUXlab4p.a(etpu_fpm.MUXLAB4p.o)
 .comment       0x0000052e       0x22 ../../prjgcc/MUXlab4/lib\libMUXlab4p.a(etpu_pwm.MUXLAB4p.o)
 .comment       0x00000550       0x22 ../../prjgcc/MUXlab4/lib\libMUXlab4p.a(etpu_ppa.MUXLAB4p.o)
 .comment       0x00000572       0x22 ../../prjgcc/MUXlab4/lib\libMUXlab4p.a(flash.MUXLAB4p.o)
 .comment       0x00000594       0x22 ../../prjgcc/MUXlab4/lib\libMUXlab4p.a(GPIO.MUXLAB4p.o)
 .comment       0x000005b6       0x22 ../../prjgcc/MUXlab4/lib\libMUXlab4p.a(IntcIsrVectors.MUXLAB4p.o)
 .comment       0x000005d8       0x22 ../../prjgcc/MUXlab4/lib\libMUXlab4p.a(GasSensor.MUXLAB4p.o)
 .comment       0x000005fa       0x22 ../../prjgcc/MUXlab4/lib\libMUXlab4p.a(SoftSPI.MUXLAB4p.o)
 .comment       0x0000061c       0x22 C:/Program Files (x86)/Nsi/powerpc-eabispe/bin/../lib/gcc/powerpc-eabispe/3.4.4/../../../../powerpc-eabispe/lib\libm.a(s_ceil.o)
 .comment       0x0000063e       0x22 C:/Program Files (x86)/Nsi/powerpc-eabispe/bin/../lib/gcc/powerpc-eabispe/3.4.4/../../../../powerpc-eabispe/lib\libm.a(s_floor.o)
 .comment       0x00000660       0x22 C:/Program Files (x86)/Nsi/powerpc-eabispe/bin/../lib/gcc/powerpc-eabispe/3.4.4\libgcc.a(_fixunsdfsi.o)
 .comment       0x00000682       0x22 C:/Program Files (x86)/Nsi/powerpc-eabispe/bin/../lib/gcc/powerpc-eabispe/3.4.4\libgcc.a(_udivdi3.o)
 .comment       0x000006a4       0x22 C:/Program Files (x86)/Nsi/powerpc-eabispe/bin/../lib/gcc/powerpc-eabispe/3.4.4\libgcc.a(_umoddi3.o)
 .comment       0x000006c6       0x22 C:/Program Files (x86)/Nsi/powerpc-eabispe/bin/../lib/gcc/powerpc-eabispe/3.4.4\libgcc.a(_sf_to_df.o)
 .comment       0x000006e8       0x22 C:/Program Files (x86)/Nsi/powerpc-eabispe/bin/../lib/gcc/powerpc-eabispe/3.4.4\libgcc.a(_addsub_df.o)
 .comment       0x0000070a       0x22 C:/Program Files (x86)/Nsi/powerpc-eabispe/bin/../lib/gcc/powerpc-eabispe/3.4.4\libgcc.a(_mul_df.o)
 .comment       0x0000072c       0x22 C:/Program Files (x86)/Nsi/powerpc-eabispe/bin/../lib/gcc/powerpc-eabispe/3.4.4\libgcc.a(_div_df.o)
 .comment       0x0000074e       0x22 C:/Program Files (x86)/Nsi/powerpc-eabispe/bin/../lib/gcc/powerpc-eabispe/3.4.4\libgcc.a(_eq_df.o)
 .comment       0x00000770       0x22 C:/Program Files (x86)/Nsi/powerpc-eabispe/bin/../lib/gcc/powerpc-eabispe/3.4.4\libgcc.a(_ne_df.o)
 .comment       0x00000792       0x22 C:/Program Files (x86)/Nsi/powerpc-eabispe/bin/../lib/gcc/powerpc-eabispe/3.4.4\libgcc.a(_gt_df.o)
 .comment       0x000007b4       0x22 C:/Program Files (x86)/Nsi/powerpc-eabispe/bin/../lib/gcc/powerpc-eabispe/3.4.4\libgcc.a(_ge_df.o)
 .comment       0x000007d6       0x22 C:/Program Files (x86)/Nsi/powerpc-eabispe/bin/../lib/gcc/powerpc-eabispe/3.4.4\libgcc.a(_lt_df.o)
 .comment       0x000007f8       0x22 C:/Program Files (x86)/Nsi/powerpc-eabispe/bin/../lib/gcc/powerpc-eabispe/3.4.4\libgcc.a(_si_to_df.o)
 .comment       0x0000081a       0x22 C:/Program Files (x86)/Nsi/powerpc-eabispe/bin/../lib/gcc/powerpc-eabispe/3.4.4\libgcc.a(_df_to_si.o)
 .comment       0x0000083c       0x22 C:/Program Files (x86)/Nsi/powerpc-eabispe/bin/../lib/gcc/powerpc-eabispe/3.4.4\libgcc.a(_make_df.o)
 .comment       0x0000085e       0x22 C:/Program Files (x86)/Nsi/powerpc-eabispe/bin/../lib/gcc/powerpc-eabispe/3.4.4\libgcc.a(_df_to_sf.o)
 .comment       0x00000880       0x22 C:/Program Files (x86)/Nsi/powerpc-eabispe/bin/../lib/gcc/powerpc-eabispe/3.4.4\libgcc.a(_thenan_df.o)
 .comment       0x000008a2       0x22 C:/Program Files (x86)/Nsi/powerpc-eabispe/bin/../lib/gcc/powerpc-eabispe/3.4.4\libgcc.a(_lshrdi3.o)
 .comment       0x000008c4       0x22 C:/Program Files (x86)/Nsi/powerpc-eabispe/bin/../lib/gcc/powerpc-eabispe/3.4.4\libgcc.a(_unpack_sf.o)
 .comment       0x000008e6       0x22 C:/Program Files (x86)/Nsi/powerpc-eabispe/bin/../lib/gcc/powerpc-eabispe/3.4.4\libgcc.a(_make_sf.o)
 .comment       0x00000908       0x22 C:/Program Files (x86)/Nsi/powerpc-eabispe/bin/../lib/gcc/powerpc-eabispe/3.4.4\libgcc.a(_pack_df.o)
 .comment       0x0000092a       0x22 C:/Program Files (x86)/Nsi/powerpc-eabispe/bin/../lib/gcc/powerpc-eabispe/3.4.4\libgcc.a(_unpack_df.o)
 .comment       0x0000094c       0x22 C:/Program Files (x86)/Nsi/powerpc-eabispe/bin/../lib/gcc/powerpc-eabispe/3.4.4\libgcc.a(_fpcmp_parts_df.o)
 .comment       0x0000096e       0x22 C:/Program Files (x86)/Nsi/powerpc-eabispe/bin/../lib/gcc/powerpc-eabispe/3.4.4\libgcc.a(_ashldi3.o)
 .comment       0x00000990       0x22 C:/Program Files (x86)/Nsi/powerpc-eabispe/bin/../lib/gcc/powerpc-eabispe/3.4.4\libgcc.a(_pack_sf.o)
 .comment       0x000009b2       0x22 C:/Program Files (x86)/Nsi/powerpc-eabispe/bin/../lib/gcc/powerpc-eabispe/3.4.4/../../../../powerpc-eabispe/lib\libc.a(memcpy.o)
 .comment       0x000009d4       0x22 C:/Program Files (x86)/Nsi/powerpc-eabispe/bin/../lib/gcc/powerpc-eabispe/3.4.4/../../../../powerpc-eabispe/lib\libc.a(memset.o)
 .comment       0x000009f6       0x22 C:/Program Files (x86)/Nsi/powerpc-eabispe/bin/../lib/gcc/powerpc-eabispe/3.4.4/../../../../powerpc-eabispe/lib\libc.a(strlen.o)

.debug_ranges   0x00000000      0x698
 .debug_ranges  0x00000000       0x40 ./obj/MainTask.o
 .debug_ranges  0x00000040       0xc8 ./obj/TBRe_Mod.o
 .debug_ranges  0x00000108       0xc0 ./obj/rtGetInf.o
 .debug_ranges  0x000001c8       0x60 ./obj/rtGetNaN.o
 .debug_ranges  0x00000228       0x20 ../../prjgcc/MUXlab4/lib\libMUXlab4p.a(CAN_J1939.MUXLAB4p.o)
 .debug_ranges  0x00000248       0x18 ../../prjgcc/MUXlab4/lib\libMUXlab4p.a(libMUXlab4.MUXLAB4p.o)
 .debug_ranges  0x00000260       0x78 ../../prjgcc/MUXlab4/lib\libMUXlab4p.a(USB.MUXLAB4p.o)
 .debug_ranges  0x000002d8       0x50 ../../prjgcc/MUXlab4/lib\libMUXlab4p.a(CCP.MUXLAB4p.o)
 .debug_ranges  0x00000328       0x38 ../../prjgcc/MUXlab4/lib\libMUXlab4p.a(can.MUXLAB4p.o)
 .debug_ranges  0x00000360       0x48 ../../prjgcc/MUXlab4/lib\libMUXlab4p.a(GasSensor.MUXLAB4p.o)
 .debug_ranges  0x000003a8       0xf8 C:/Program Files (x86)/Nsi/powerpc-eabispe/bin/../lib/gcc/powerpc-eabispe/3.4.4\libgcc.a(_udivdi3.o)
 .debug_ranges  0x000004a0       0xe8 C:/Program Files (x86)/Nsi/powerpc-eabispe/bin/../lib/gcc/powerpc-eabispe/3.4.4\libgcc.a(_umoddi3.o)
 .debug_ranges  0x00000588       0x20 C:/Program Files (x86)/Nsi/powerpc-eabispe/bin/../lib/gcc/powerpc-eabispe/3.4.4\libgcc.a(_addsub_df.o)
 .debug_ranges  0x000005a8       0x70 C:/Program Files (x86)/Nsi/powerpc-eabispe/bin/../lib/gcc/powerpc-eabispe/3.4.4\libgcc.a(_mul_df.o)
 .debug_ranges  0x00000618       0x18 C:/Program Files (x86)/Nsi/powerpc-eabispe/bin/../lib/gcc/powerpc-eabispe/3.4.4\libgcc.a(_div_df.o)
 .debug_ranges  0x00000630       0x18 C:/Program Files (x86)/Nsi/powerpc-eabispe/bin/../lib/gcc/powerpc-eabispe/3.4.4\libgcc.a(_lshrdi3.o)
 .debug_ranges  0x00000648       0x20 C:/Program Files (x86)/Nsi/powerpc-eabispe/bin/../lib/gcc/powerpc-eabispe/3.4.4\libgcc.a(_pack_df.o)
 .debug_ranges  0x00000668       0x18 C:/Program Files (x86)/Nsi/powerpc-eabispe/bin/../lib/gcc/powerpc-eabispe/3.4.4\libgcc.a(_ashldi3.o)
 .debug_ranges  0x00000680       0x18 C:/Program Files (x86)/Nsi/powerpc-eabispe/bin/../lib/gcc/powerpc-eabispe/3.4.4\libgcc.a(_pack_sf.o)

Cross Reference Table

Symbol                                            File
AD5601_WriteRegister                              ../../prjgcc/MUXlab4/lib\libMUXlab4p.a(SPI.MUXLAB4p.o)
                                                  ../../prjgcc/MUXlab4/lib\libMUXlab4p.a(GasSensor.MUXLAB4p.o)
                                                  ../../prjgcc/MUXlab4/lib\libMUXlab4p.a(libMUXlab4.MUXLAB4p.o)
AD5628_TransmitData                               ../../prjgcc/MUXlab4/lib\libMUXlab4p.a(SPI.MUXLAB4p.o)
                                                  ../../prjgcc/MUXlab4/lib\libMUXlab4p.a(DAC_HAL.MUXLAB4p.o)
ADC_Calibrate                                     ../../prjgcc/MUXlab4/lib\libMUXlab4p.a(ADC.MUXLAB4p.o)
ADC_Init                                          ../../prjgcc/MUXlab4/lib\libMUXlab4p.a(ADC.MUXLAB4p.o)
                                                  ../../prjgcc/MUXlab4/lib\libMUXlab4p.a(ADC_HAL.MUXLAB4p.o)
ADC_StartConversionPolling                        ../../prjgcc/MUXlab4/lib\libMUXlab4p.a(ADC.MUXLAB4p.o)
                                                  ../../prjgcc/MUXlab4/lib\libMUXlab4p.a(GPIO_HAL.MUXLAB4p.o)
                                                  ../../prjgcc/MUXlab4/lib\libMUXlab4p.a(ADC_HAL.MUXLAB4p.o)
ANA_IN_Init                                       ../../prjgcc/MUXlab4/lib\libMUXlab4p.a(ADC_HAL.MUXLAB4p.o)
                                                  ../../prjgcc/MUXlab4/lib\libMUXlab4p.a(libMUXlab4.MUXLAB4p.o)
ANA_IN_ReadAnaOutFeedback                         ../../prjgcc/MUXlab4/lib\libMUXlab4p.a(ADC_HAL.MUXLAB4p.o)
ANA_IN_ReadVBatt                                  ../../prjgcc/MUXlab4/lib\libMUXlab4p.a(ADC_HAL.MUXLAB4p.o)
                                                  ./obj/MainTask.o
ANA_IN_ReadValue                                  ../../prjgcc/MUXlab4/lib\libMUXlab4p.a(ADC_HAL.MUXLAB4p.o)
                                                  ./obj/MainTask.o
APP_DiagnosticsCAN                                ./obj/APP_DiagnosticsCAN.o
                                                  ./obj/APP_Tasks.o
APP_InitApp                                       ./obj/APP_Tasks.o
                                                  ./obj/main.o
APP_MainTask                                      ./obj/APP_MainTask.o
                                                  ./obj/APP_Tasks.o
Brake1_High                                       ./obj/FlashData.o
                                                  ./obj/MainTask.o
Brake1_Low                                        ./obj/FlashData.o
                                                  ./obj/MainTask.o
Brake1_Pressure_Scaling                           ./obj/FlashData.o
                                                  ./obj/MainTask.o
Brake2_High                                       ./obj/FlashData.o
                                                  ./obj/MainTask.o
Brake2_Low                                        ./obj/FlashData.o
                                                  ./obj/MainTask.o
Brake2_Pressure_Scaling                           ./obj/FlashData.o
                                                  ./obj/MainTask.o
Brake_Active_Threshold                            ./obj/FlashData.o
                                                  ./obj/MainTask.o
Brk1_OOR_High                                     ./obj/FlashData.o
Brk1_OOR_Low                                      ./obj/FlashData.o
Brk2_OOR_High                                     ./obj/FlashData.o
Brk2_OOR_Low                                      ./obj/FlashData.o
CAN_ActivateRXBuffer                              ../../prjgcc/MUXlab4/lib\libMUXlab4p.a(can.MUXLAB4p.o)
                                                  ../../prjgcc/MUXlab4/lib\libMUXlab4p.a(CAN_HAL.MUXLAB4p.o)
CAN_ChangeBauderate                               ../../prjgcc/MUXlab4/lib\libMUXlab4p.a(CAN_HAL.MUXLAB4p.o)
CAN_DisableInterrupt                              ../../prjgcc/MUXlab4/lib\libMUXlab4p.a(can.MUXLAB4p.o)
                                                  ../../prjgcc/MUXlab4/lib\libMUXlab4p.a(CAN_HAL.MUXLAB4p.o)
CAN_EnableGateway                                 ../../prjgcc/MUXlab4/lib\libMUXlab4p.a(CAN_HAL.MUXLAB4p.o)
CAN_EnableInterrupt                               ../../prjgcc/MUXlab4/lib\libMUXlab4p.a(can.MUXLAB4p.o)
                                                  ../../prjgcc/MUXlab4/lib\libMUXlab4p.a(fifoCan.MUXLAB4p.o)
                                                  ../../prjgcc/MUXlab4/lib\libMUXlab4p.a(CAN_HAL.MUXLAB4p.o)
CAN_EnableRxFrame                                 ../../prjgcc/MUXlab4/lib\libMUXlab4p.a(CAN_HAL.MUXLAB4p.o)
CAN_EnableSmartGateway                            ../../prjgcc/MUXlab4/lib\libMUXlab4p.a(CAN_HAL.MUXLAB4p.o)
CAN_EnableTransceivers                            ../../prjgcc/MUXlab4/lib\libMUXlab4p.a(can.MUXLAB4p.o)
CAN_GetFreeMessageBuffer                          ../../prjgcc/MUXlab4/lib\libMUXlab4p.a(can.MUXLAB4p.o)
                                                  ../../prjgcc/MUXlab4/lib\libMUXlab4p.a(CAN_HAL.MUXLAB4p.o)
CAN_GetRXCounters                                 ../../prjgcc/MUXlab4/lib\libMUXlab4p.a(CAN_HAL.MUXLAB4p.o)
CAN_GetStatusAndErrorCounters                     ../../prjgcc/MUXlab4/lib\libMUXlab4p.a(can.MUXLAB4p.o)
CAN_IRQ                                           ../../prjgcc/MUXlab4/lib\libMUXlab4p.a(can.MUXLAB4p.o)
CAN_Init                                          ../../prjgcc/MUXlab4/lib\libMUXlab4p.a(CAN_HAL.MUXLAB4p.o)
                                                  ./obj/CAN_INIT.o
CAN_InitBuffer                                    ../../prjgcc/MUXlab4/lib\libMUXlab4p.a(can.MUXLAB4p.o)
                                                  ../../prjgcc/MUXlab4/lib\libMUXlab4p.a(CAN_HAL.MUXLAB4p.o)
CAN_InitBufferEth                                 ../../prjgcc/MUXlab4/lib\libMUXlab4p.a(can.MUXLAB4p.o)
CAN_InitEx                                        ../../prjgcc/MUXlab4/lib\libMUXlab4p.a(CAN_HAL.MUXLAB4p.o)
CAN_InitFlexCANController                         ../../prjgcc/MUXlab4/lib\libMUXlab4p.a(can.MUXLAB4p.o)
                                                  ../../prjgcc/MUXlab4/lib\libMUXlab4p.a(CAN_HAL.MUXLAB4p.o)
CAN_InitFrame                                     ../../prjgcc/MUXlab4/lib\libMUXlab4p.a(CAN_HAL.MUXLAB4p.o)
                                                  ../../prjgcc/MUXlab4/lib\libMUXlab4p.a(CCP_HAL.MUXLAB4p.o)
                                                  ./obj/MainTask.o
                                                  ./obj/DiagnosticsCAN.o
CAN_InitFrameEx                                   ../../prjgcc/MUXlab4/lib\libMUXlab4p.a(CAN_HAL.MUXLAB4p.o)
CAN_InitGateway                                   ../../prjgcc/MUXlab4/lib\libMUXlab4p.a(CAN_HAL.MUXLAB4p.o)
CAN_InitPin                                       ../../prjgcc/MUXlab4/lib\libMUXlab4p.a(can.MUXLAB4p.o)
                                                  ../../prjgcc/MUXlab4/lib\libMUXlab4p.a(CAN_HAL.MUXLAB4p.o)
CAN_InitRxBufferWithMask                          ../../prjgcc/MUXlab4/lib\libMUXlab4p.a(can.MUXLAB4p.o)
                                                  ../../prjgcc/MUXlab4/lib\libMUXlab4p.a(CAN_HAL.MUXLAB4p.o)
CAN_InitRxFrameWithMask                           ../../prjgcc/MUXlab4/lib\libMUXlab4p.a(CAN_HAL.MUXLAB4p.o)
                                                  ../../prjgcc/MUXlab4/lib\libMUXlab4p.a(CAN_J1939.MUXLAB4p.o)
                                                  ./obj/MainTask.o
CAN_InitSmartGateway                              ../../prjgcc/MUXlab4/lib\libMUXlab4p.a(CAN_HAL.MUXLAB4p.o)
CAN_LibInit                                       ../../prjgcc/MUXlab4/lib\libMUXlab4p.a(CAN_HAL.MUXLAB4p.o)
                                                  ../../prjgcc/MUXlab4/lib\libMUXlab4p.a(libMUXlab4.MUXLAB4p.o)
CAN_Pack                                          ../../prjgcc/MUXlab4/lib\libMUXlab4p.a(CAN_HAL.MUXLAB4p.o)
                                                  ../../prjgcc/MUXlab4/lib\libMUXlab4p.a(LIN_HAL.MUXLAB4p.o)
                                                  ../../prjgcc/MUXlab4/lib\libMUXlab4p.a(CAN_J1939.MUXLAB4p.o)
CAN_ReadMessageBuffer                             ../../prjgcc/MUXlab4/lib\libMUXlab4p.a(can.MUXLAB4p.o)
CAN_ReceiveLongJ1939Message                       ../../prjgcc/MUXlab4/lib\libMUXlab4p.a(CAN_J1939.MUXLAB4p.o)
CAN_ReceiveMessage                                ../../prjgcc/MUXlab4/lib\libMUXlab4p.a(CAN_HAL.MUXLAB4p.o)
                                                  ./obj/MainTask.o
CAN_ReceiveMessageWithCrc                         ../../prjgcc/MUXlab4/lib\libMUXlab4p.a(CAN_HAL.MUXLAB4p.o)
CAN_ReleaseMessageBuffer                          ../../prjgcc/MUXlab4/lib\libMUXlab4p.a(can.MUXLAB4p.o)
CAN_SelectResistor                                ../../prjgcc/MUXlab4/lib\libMUXlab4p.a(CAN_HAL.MUXLAB4p.o)
                                                  ./obj/CAN_INIT.o
CAN_SetBauderate                                  ../../prjgcc/MUXlab4/lib\libMUXlab4p.a(can.MUXLAB4p.o)
                                                  ../../prjgcc/MUXlab4/lib\libMUXlab4p.a(CAN_HAL.MUXLAB4p.o)
CAN_TransmitCanObj                                ../../prjgcc/MUXlab4/lib\libMUXlab4p.a(can.MUXLAB4p.o)
CAN_TransmitEthCanObj                             ../../prjgcc/MUXlab4/lib\libMUXlab4p.a(can.MUXLAB4p.o)
CAN_TransmitMessage                               ../../prjgcc/MUXlab4/lib\libMUXlab4p.a(CAN_HAL.MUXLAB4p.o)
                                                  ./obj/MainTask.o
                                                  ./obj/DiagnosticsCAN.o
CAN_TransmitMessageWithCrc                        ../../prjgcc/MUXlab4/lib\libMUXlab4p.a(CAN_HAL.MUXLAB4p.o)
CAN_Unpack                                        ../../prjgcc/MUXlab4/lib\libMUXlab4p.a(CAN_HAL.MUXLAB4p.o)
                                                  ../../prjgcc/MUXlab4/lib\libMUXlab4p.a(LIN_HAL.MUXLAB4p.o)
                                                  ../../prjgcc/MUXlab4/lib\libMUXlab4p.a(CAN_J1939.MUXLAB4p.o)
CAN_UpdateEthCanFrame                             ../../prjgcc/MUXlab4/lib\libMUXlab4p.a(can.MUXLAB4p.o)
CAN_flexCAN_A_IRQ                                 ../../prjgcc/MUXlab4/lib\libMUXlab4p.a(can.MUXLAB4p.o)
                                                  ../../prjgcc/MUXlab4/lib\libMUXlab4p.a(IntcIsrVectors.MUXLAB4p.o)
CAN_flexCAN_B_IRQ                                 ../../prjgcc/MUXlab4/lib\libMUXlab4p.a(can.MUXLAB4p.o)
                                                  ../../prjgcc/MUXlab4/lib\libMUXlab4p.a(IntcIsrVectors.MUXLAB4p.o)
CAN_flexCAN_C_IRQ                                 ../../prjgcc/MUXlab4/lib\libMUXlab4p.a(can.MUXLAB4p.o)
                                                  ../../prjgcc/MUXlab4/lib\libMUXlab4p.a(IntcIsrVectors.MUXLAB4p.o)
CAN_flexCAN_D_IRQ                                 ../../prjgcc/MUXlab4/lib\libMUXlab4p.a(can.MUXLAB4p.o)
                                                  ../../prjgcc/MUXlab4/lib\libMUXlab4p.a(IntcIsrVectors.MUXLAB4p.o)
CAN_flexCAN_E_IRQ                                 ../../prjgcc/MUXlab4/lib\libMUXlab4p.a(can.MUXLAB4p.o)
                                                  ../../prjgcc/MUXlab4/lib\libMUXlab4p.a(IntcIsrVectors.MUXLAB4p.o)
CCP_Command                                       ../../prjgcc/MUXlab4/lib\libMUXlab4p.a(CCP.MUXLAB4p.o)
                                                  ../../prjgcc/MUXlab4/lib\libMUXlab4p.a(CCP_HAL.MUXLAB4p.o)
CCP_DAQ_EVENT                                     ../../prjgcc/MUXlab4/lib\libMUXlab4p.a(CCP.MUXLAB4p.o)
                                                  ../../prjgcc/MUXlab4/lib\libMUXlab4p.a(IntcIsrVectors.MUXLAB4p.o)
CCP_DAQ_cnannels                                  ../../prjgcc/MUXlab4/lib\libMUXlab4p.a(CCP.MUXLAB4p.o)
CCP_Init                                          ../../prjgcc/MUXlab4/lib\libMUXlab4p.a(CCP_HAL.MUXLAB4p.o)
                                                  ./obj/CAN_INIT.o
CCP_channel                                       ../../prjgcc/MUXlab4/lib\libMUXlab4p.a(CCP.MUXLAB4p.o)
                                                  ../../prjgcc/MUXlab4/lib\libMUXlab4p.a(CCP_HAL.MUXLAB4p.o)
CRO_DAQ_object                                    ../../prjgcc/MUXlab4/lib\libMUXlab4p.a(CCP.MUXLAB4p.o)
CRO_object                                        ../../prjgcc/MUXlab4/lib\libMUXlab4p.a(CCP.MUXLAB4p.o)
                                                  ../../prjgcc/MUXlab4/lib\libMUXlab4p.a(CCP_HAL.MUXLAB4p.o)
CalcCrc                                           ../../prjgcc/MUXlab4/lib\libMUXlab4p.a(CAN_HAL.MUXLAB4p.o)
CalcCrcJ1850                                      ./obj/CRCJ1850.o
DATA_CRC                                          ./obj/TBRe_Mod_data.o
                                                  ./obj/TBRe_Mod.o
                                                  ./obj/MainTask.o
                                                  ./obj/FlashData.o
                                                  ./obj/DiagnosticsCAN.o
DEBUT_RAM_EXTERNE                                 ../../prjgcc/MUXlab4/lib\libMUXlab4p.a(CCP.MUXLAB4p.o)
DEBUT_RAM_SAUVEGARDE                              ../../prjgcc/MUXlab4/lib\libMUXlab4p.a(CCP.MUXLAB4p.o)
DTO_object                                        ../../prjgcc/MUXlab4/lib\libMUXlab4p.a(CCP.MUXLAB4p.o)
                                                  ../../prjgcc/MUXlab4/lib\libMUXlab4p.a(CCP_HAL.MUXLAB4p.o)
DTO_object2                                       ../../prjgcc/MUXlab4/lib\libMUXlab4p.a(CCP.MUXLAB4p.o)
DiagnosticsCAN                                    ./obj/DiagnosticsCAN.o
                                                  ./obj/APP_DiagnosticsCAN.o
                                                  ./obj/TBRe_Mod.o
DiagnosticsCANId                                  ./obj/APP_DiagnosticsCAN.o
                                                  ./obj/APP_Tasks.o
DiagnosticsCAN_Init                               ./obj/DiagnosticsCAN.o
                                                  ./obj/TBRe_Mod.o
DiagnosticsCAN_Start                              ./obj/DiagnosticsCAN.o
                                                  ./obj/TBRe_Mod.o
EMIOS_ConfigGeneralPurposeTimer                   ../../prjgcc/MUXlab4/lib\libMUXlab4p.a(EMIOS.MUXLAB4p.o)
                                                  ../../prjgcc/MUXlab4/lib\libMUXlab4p.a(SoftSPI.MUXLAB4p.o)
                                                  ../../prjgcc/MUXlab4/lib\libMUXlab4p.a(GasSensor.MUXLAB4p.o)
                                                  ../../prjgcc/MUXlab4/lib\libMUXlab4p.a(CCP.MUXLAB4p.o)
                                                  ../../prjgcc/MUXlab4/lib\libMUXlab4p.a(LIN.MUXLAB4p.o)
                                                  ../../prjgcc/MUXlab4/lib\libMUXlab4p.a(libMUXlab4.MUXLAB4p.o)
                                                  ../../prjgcc/MUXlab4/lib\libMUXlab4p.a(CAN_J1939.MUXLAB4p.o)
EMIOS_ConfigInputCaptureTimer                     ../../prjgcc/MUXlab4/lib\libMUXlab4p.a(EMIOS.MUXLAB4p.o)
                                                  ../../prjgcc/MUXlab4/lib\libMUXlab4p.a(LIN.MUXLAB4p.o)
EMIOS_ConfigInputPulseWidthMeasurementTimer       ../../prjgcc/MUXlab4/lib\libMUXlab4p.a(EMIOS.MUXLAB4p.o)
EMIOS_ConfigPWMChannel                            ../../prjgcc/MUXlab4/lib\libMUXlab4p.a(EMIOS.MUXLAB4p.o)
                                                  ../../prjgcc/MUXlab4/lib\libMUXlab4p.a(GPIO_HAL.MUXLAB4p.o)
EMIOS_Init                                        ../../prjgcc/MUXlab4/lib\libMUXlab4p.a(EMIOS.MUXLAB4p.o)
                                                  ../../prjgcc/MUXlab4/lib\libMUXlab4p.a(libMUXlab4.MUXLAB4p.o)
EMIOS_RestartGeneralPurposeTimer                  ../../prjgcc/MUXlab4/lib\libMUXlab4p.a(EMIOS.MUXLAB4p.o)
                                                  ../../prjgcc/MUXlab4/lib\libMUXlab4p.a(SoftSPI.MUXLAB4p.o)
                                                  ../../prjgcc/MUXlab4/lib\libMUXlab4p.a(GasSensor.MUXLAB4p.o)
                                                  ../../prjgcc/MUXlab4/lib\libMUXlab4p.a(CCP.MUXLAB4p.o)
                                                  ../../prjgcc/MUXlab4/lib\libMUXlab4p.a(LIN.MUXLAB4p.o)
                                                  ../../prjgcc/MUXlab4/lib\libMUXlab4p.a(CAN_J1939.MUXLAB4p.o)
EMIOS_StopGeneralPurposeTimer                     ../../prjgcc/MUXlab4/lib\libMUXlab4p.a(EMIOS.MUXLAB4p.o)
                                                  ../../prjgcc/MUXlab4/lib\libMUXlab4p.a(SoftSPI.MUXLAB4p.o)
                                                  ../../prjgcc/MUXlab4/lib\libMUXlab4p.a(GasSensor.MUXLAB4p.o)
EMIOS_UpdatePWM                                   ../../prjgcc/MUXlab4/lib\libMUXlab4p.a(EMIOS.MUXLAB4p.o)
                                                  ../../prjgcc/MUXlab4/lib\libMUXlab4p.a(GPIO_HAL.MUXLAB4p.o)
FIFO_CAN_Init                                     ../../prjgcc/MUXlab4/lib\libMUXlab4p.a(fifoCan.MUXLAB4p.o)
                                                  ../../prjgcc/MUXlab4/lib\libMUXlab4p.a(can.MUXLAB4p.o)
FIFO_CAN_ReadMessage                              ../../prjgcc/MUXlab4/lib\libMUXlab4p.a(fifoCan.MUXLAB4p.o)
FIFO_CAN_TransmitCanObj                           ../../prjgcc/MUXlab4/lib\libMUXlab4p.a(fifoCan.MUXLAB4p.o)
FIFO_CAN_TransmitNextMessage                      ../../prjgcc/MUXlab4/lib\libMUXlab4p.a(fifoCan.MUXLAB4p.o)
                                                  ../../prjgcc/MUXlab4/lib\libMUXlab4p.a(can.MUXLAB4p.o)
FIFO_CAN_WriteMessage                             ../../prjgcc/MUXlab4/lib\libMUXlab4p.a(fifoCan.MUXLAB4p.o)
                                                  ../../prjgcc/MUXlab4/lib\libMUXlab4p.a(can.MUXLAB4p.o)
                                                  ../../prjgcc/MUXlab4/lib\libMUXlab4p.a(CCP.MUXLAB4p.o)
                                                  ../../prjgcc/MUXlab4/lib\libMUXlab4p.a(CAN_J1939.MUXLAB4p.o)
                                                  ../../prjgcc/MUXlab4/lib\libMUXlab4p.a(CAN_HAL.MUXLAB4p.o)
FIN_RAM_EXTERNE                                   ../../prjgcc/MUXlab4/lib\libMUXlab4p.a(CCP.MUXLAB4p.o)
FIN_RAM_SAUVEGARDE                                ../../prjgcc/MUXlab4/lib\libMUXlab4p.a(CCP.MUXLAB4p.o)
FLASH_EraseBlock                                  ../../prjgcc/MUXlab4/lib\libMUXlab4p.a(flash.MUXLAB4p.o)
                                                  ../../prjgcc/MUXlab4/lib\libMUXlab4p.a(USB.MUXLAB4p.o)
FLASH_Lock                                        ../../prjgcc/MUXlab4/lib\libMUXlab4p.a(flash.MUXLAB4p.o)
FLASH_Unlock                                      ../../prjgcc/MUXlab4/lib\libMUXlab4p.a(flash.MUXLAB4p.o)
                                                  ../../prjgcc/MUXlab4/lib\libMUXlab4p.a(USB.MUXLAB4p.o)
FLASH_Write                                       ../../prjgcc/MUXlab4/lib\libMUXlab4p.a(flash.MUXLAB4p.o)
                                                  ../../prjgcc/MUXlab4/lib\libMUXlab4p.a(USB.MUXLAB4p.o)
FlashData_Init                                    ./obj/FlashData.o
                                                  ./obj/APP_Tasks.o
GAS_EnablePeriodicMeasurement                     ../../prjgcc/MUXlab4/lib\libMUXlab4p.a(GasSensor.MUXLAB4p.o)
GAS_GetLastGas1Measurement                        ../../prjgcc/MUXlab4/lib\libMUXlab4p.a(GasSensor.MUXLAB4p.o)
GAS_GetLastGas2Measurement                        ../../prjgcc/MUXlab4/lib\libMUXlab4p.a(GasSensor.MUXLAB4p.o)
GAS_GetLastHumidMeasurement                       ../../prjgcc/MUXlab4/lib\libMUXlab4p.a(GasSensor.MUXLAB4p.o)
GAS_GetLastMeasurementDiagnosis                   ../../prjgcc/MUXlab4/lib\libMUXlab4p.a(GasSensor.MUXLAB4p.o)
GAS_GetLastTempMeasurement                        ../../prjgcc/MUXlab4/lib\libMUXlab4p.a(GasSensor.MUXLAB4p.o)
GAS_Init                                          ../../prjgcc/MUXlab4/lib\libMUXlab4p.a(GasSensor.MUXLAB4p.o)
GAS_ReadRegisters                                 ../../prjgcc/MUXlab4/lib\libMUXlab4p.a(GasSensor.MUXLAB4p.o)
GAS_SetOnChipHeater                               ../../prjgcc/MUXlab4/lib\libMUXlab4p.a(GasSensor.MUXLAB4p.o)
GAS_TimerIRQ                                      ../../prjgcc/MUXlab4/lib\libMUXlab4p.a(GasSensor.MUXLAB4p.o)
                                                  ../../prjgcc/MUXlab4/lib\libMUXlab4p.a(IntcIsrVectors.MUXLAB4p.o)
GAS_WriteRegisters                                ../../prjgcc/MUXlab4/lib\libMUXlab4p.a(GasSensor.MUXLAB4p.o)
GPIO_InitInputPin                                 ../../prjgcc/MUXlab4/lib\libMUXlab4p.a(GPIO.MUXLAB4p.o)
                                                  ../../prjgcc/MUXlab4/lib\libMUXlab4p.a(can.MUXLAB4p.o)
                                                  ../../prjgcc/MUXlab4/lib\libMUXlab4p.a(USB.MUXLAB4p.o)
                                                  ../../prjgcc/MUXlab4/lib\libMUXlab4p.a(eTPU_HAL.MUXLAB4p.o)
GPIO_InitOutputPin                                ../../prjgcc/MUXlab4/lib\libMUXlab4p.a(GPIO.MUXLAB4p.o)
                                                  ../../prjgcc/MUXlab4/lib\libMUXlab4p.a(can.MUXLAB4p.o)
                                                  ../../prjgcc/MUXlab4/lib\libMUXlab4p.a(USB.MUXLAB4p.o)
                                                  ../../prjgcc/MUXlab4/lib\libMUXlab4p.a(LIN.MUXLAB4p.o)
                                                  ../../prjgcc/MUXlab4/lib\libMUXlab4p.a(GPIO_HAL.MUXLAB4p.o)
Gearing_Ratio                                     ./obj/FlashData.o
                                                  ./obj/DiagnosticsCAN.o
Green_TSAL1                                       ./obj/FlashData.o
                                                  ./obj/MainTask.o
Green_TSAL2                                       ./obj/FlashData.o
                                                  ./obj/MainTask.o
INIT_CAN                                          ./obj/CAN_INIT.o
                                                  ./obj/APP_Tasks.o
INIT_J1939_TP                                     ../../prjgcc/MUXlab4/lib\libMUXlab4p.a(CAN_J1939.MUXLAB4p.o)
                                                  ./obj/CAN_INIT.o
INIT_LIN                                          ./obj/LIN_INIT.o
                                                  ./obj/APP_Tasks.o
INV_DC_Link_Discharge_Imax                        ./obj/FlashData.o
                                                  ./obj/MainTask.o
INV_DC_Link_Regen_Imax                            ./obj/FlashData.o
                                                  ./obj/MainTask.o
INV_DC_Link_Target                                ./obj/FlashData.o
                                                  ./obj/MainTask.o
INV_Id_Debug                                      ./obj/FlashData.o
                                                  ./obj/MainTask.o
INV_Iq_debug                                      ./obj/FlashData.o
                                                  ./obj/MainTask.o
INV_Regen_Torque_Limit                            ./obj/FlashData.o
                                                  ./obj/MainTask.o
INV_Speed_Limit_Fwd                               ./obj/FlashData.o
                                                  ./obj/MainTask.o
INV_Speed_limit_Rev                               ./obj/FlashData.o
                                                  ./obj/MainTask.o
INV_Torque_limit                                  ./obj/FlashData.o
                                                  ./obj/MainTask.o
IRQ_InitINTC                                      ../../prjgcc/MUXlab4/lib\libMUXlab4p.a(IRQ.MUXLAB4p.o)
                                                  ./obj/main.o
IRQ_InitVectors                                   ../../prjgcc/MUXlab4/lib\libMUXlab4p.a(IRQ.MUXLAB4p.o)
                                                  ./obj/main.o
IVOR4Handler                                      ../../prjgcc/MUXlab4/lib\libMUXlab4p.a(handlers.MUXLAB4p.o)
                                                  ../../prjgcc/MUXlab4/lib\libMUXlab4p.a(IRQ.MUXLAB4p.o)
Init_System_Start                                 ./obj/FlashData.o
Init_System_end                                   ./obj/FlashData.o
IntcIsrVectorTable                                ../../prjgcc/MUXlab4/lib\libMUXlab4p.a(IntcIsrVectors.MUXLAB4p.o)
                                                  ../../prjgcc/MUXlab4/lib\libMUXlab4p.a(IRQ.MUXLAB4p.o)
J1939TP_AddRxObj                                  ../../prjgcc/MUXlab4/lib\libMUXlab4p.a(CAN_J1939.MUXLAB4p.o)
J1939TP_BAMRX                                     ../../prjgcc/MUXlab4/lib\libMUXlab4p.a(CAN_J1939.MUXLAB4p.o)
J1939TP_BAMRX2                                    ../../prjgcc/MUXlab4/lib\libMUXlab4p.a(CAN_J1939.MUXLAB4p.o)
J1939TP_DTRX                                      ../../prjgcc/MUXlab4/lib\libMUXlab4p.a(CAN_J1939.MUXLAB4p.o)
J1939TP_DTRX2                                     ../../prjgcc/MUXlab4/lib\libMUXlab4p.a(CAN_J1939.MUXLAB4p.o)
J1939TP_Table                                     ../../prjgcc/MUXlab4/lib\libMUXlab4p.a(CAN_J1939.MUXLAB4p.o)
J1939_InitRxTP                                    ../../prjgcc/MUXlab4/lib\libMUXlab4p.a(CAN_J1939.MUXLAB4p.o)
J1939_ReceiveTP_DT_Timeout                        ../../prjgcc/MUXlab4/lib\libMUXlab4p.a(CAN_J1939.MUXLAB4p.o)
                                                  ../../prjgcc/MUXlab4/lib\libMUXlab4p.a(IntcIsrVectors.MUXLAB4p.o)
J1939_SA_FIELD                                    ../../prjgcc/MUXlab4/lib\libMUXlab4p.a(can.MUXLAB4p.o)
                                                  ../../prjgcc/MUXlab4/lib\libMUXlab4p.a(CAN_J1939.MUXLAB4p.o)
J1939_TP_RXBAM                                    ../../prjgcc/MUXlab4/lib\libMUXlab4p.a(CAN_J1939.MUXLAB4p.o)
J1939_TP_RXBAM2                                   ../../prjgcc/MUXlab4/lib\libMUXlab4p.a(CAN_J1939.MUXLAB4p.o)
J1939_TP_RXDT                                     ../../prjgcc/MUXlab4/lib\libMUXlab4p.a(CAN_J1939.MUXLAB4p.o)
J1939_TP_RXDT2                                    ../../prjgcc/MUXlab4/lib\libMUXlab4p.a(CAN_J1939.MUXLAB4p.o)
J1939_TransmitBAM                                 ../../prjgcc/MUXlab4/lib\libMUXlab4p.a(CAN_J1939.MUXLAB4p.o)
J1939_TransmitTP_DT                               ../../prjgcc/MUXlab4/lib\libMUXlab4p.a(CAN_J1939.MUXLAB4p.o)
                                                  ../../prjgcc/MUXlab4/lib\libMUXlab4p.a(IntcIsrVectors.MUXLAB4p.o)
LED_Blink                                         ../../prjgcc/MUXlab4/lib\libMUXlab4p.a(GPIO_HAL.MUXLAB4p.o)
                                                  ../../prjgcc/MUXlab4/lib\libMUXlab4p.a(OS_Core.MUXLAB4p.o)
LED_Init                                          ../../prjgcc/MUXlab4/lib\libMUXlab4p.a(GPIO_HAL.MUXLAB4p.o)
                                                  ../../prjgcc/MUXlab4/lib\libMUXlab4p.a(libMUXlab4.MUXLAB4p.o)
LIB_GetBoardSerialNumber                          ../../prjgcc/MUXlab4/lib\libMUXlab4p.a(libMUXlab4.MUXLAB4p.o)
LIB_Init                                          ../../prjgcc/MUXlab4/lib\libMUXlab4p.a(libMUXlab4.MUXLAB4p.o)
                                                  ./obj/main.o
LINChannelManagement                              ../../prjgcc/MUXlab4/lib\libMUXlab4p.a(LIN.MUXLAB4p.o)
                                                  ../../prjgcc/MUXlab4/lib\libMUXlab4p.a(LIN_HAL.MUXLAB4p.o)
LIN_ESCIA_IRQ                                     ../../prjgcc/MUXlab4/lib\libMUXlab4p.a(LIN.MUXLAB4p.o)
                                                  ../../prjgcc/MUXlab4/lib\libMUXlab4p.a(IntcIsrVectors.MUXLAB4p.o)
LIN_ESCIB_IRQ                                     ../../prjgcc/MUXlab4/lib\libMUXlab4p.a(LIN.MUXLAB4p.o)
                                                  ../../prjgcc/MUXlab4/lib\libMUXlab4p.a(IntcIsrVectors.MUXLAB4p.o)
LIN_EnableTransceivers                            ../../prjgcc/MUXlab4/lib\libMUXlab4p.a(LIN.MUXLAB4p.o)
                                                  ../../prjgcc/MUXlab4/lib\libMUXlab4p.a(libMUXlab4.MUXLAB4p.o)
LIN_Init                                          ../../prjgcc/MUXlab4/lib\libMUXlab4p.a(LIN.MUXLAB4p.o)
                                                  ../../prjgcc/MUXlab4/lib\libMUXlab4p.a(LIN_HAL.MUXLAB4p.o)
LIN_InputCaptureLIN1                              ../../prjgcc/MUXlab4/lib\libMUXlab4p.a(LIN.MUXLAB4p.o)
                                                  ../../prjgcc/MUXlab4/lib\libMUXlab4p.a(IntcIsrVectors.MUXLAB4p.o)
LIN_InputCaptureLIN2                              ../../prjgcc/MUXlab4/lib\libMUXlab4p.a(LIN.MUXLAB4p.o)
                                                  ../../prjgcc/MUXlab4/lib\libMUXlab4p.a(IntcIsrVectors.MUXLAB4p.o)
LIN_ReceptionHandler                              ../../prjgcc/MUXlab4/lib\libMUXlab4p.a(LIN.MUXLAB4p.o)
LIN_SendBreak                                     ../../prjgcc/MUXlab4/lib\libMUXlab4p.a(LIN.MUXLAB4p.o)
LIN_SendByte                                      ../../prjgcc/MUXlab4/lib\libMUXlab4p.a(LIN.MUXLAB4p.o)
LIN_SendHeader                                    ../../prjgcc/MUXlab4/lib\libMUXlab4p.a(LIN.MUXLAB4p.o)
                                                  ../../prjgcc/MUXlab4/lib\libMUXlab4p.a(LIN_HAL.MUXLAB4p.o)
LIN_TimeoutLin1                                   ../../prjgcc/MUXlab4/lib\libMUXlab4p.a(LIN.MUXLAB4p.o)
                                                  ../../prjgcc/MUXlab4/lib\libMUXlab4p.a(IntcIsrVectors.MUXLAB4p.o)
LIN_TimeoutLin2                                   ../../prjgcc/MUXlab4/lib\libMUXlab4p.a(LIN.MUXLAB4p.o)
                                                  ../../prjgcc/MUXlab4/lib\libMUXlab4p.a(IntcIsrVectors.MUXLAB4p.o)
LV_Low_Voltage_Warning                            ./obj/FlashData.o
                                                  ./obj/MainTask.o
LinIf_ExtractFrameSignals                         ../../prjgcc/MUXlab4/lib\libMUXlab4p.a(LIN_HAL.MUXLAB4p.o)
LinIf_Init                                        ../../prjgcc/MUXlab4/lib\libMUXlab4p.a(LIN_HAL.MUXLAB4p.o)
LinIf_InitScheduleTable                           ../../prjgcc/MUXlab4/lib\libMUXlab4p.a(LIN_HAL.MUXLAB4p.o)
LinIf_InitUncondFrame                             ../../prjgcc/MUXlab4/lib\libMUXlab4p.a(LIN_HAL.MUXLAB4p.o)
LinIf_LibInit                                     ../../prjgcc/MUXlab4/lib\libMUXlab4p.a(LIN_HAL.MUXLAB4p.o)
                                                  ../../prjgcc/MUXlab4/lib\libMUXlab4p.a(libMUXlab4.MUXLAB4p.o)
LinIf_MainFunction                                ../../prjgcc/MUXlab4/lib\libMUXlab4p.a(LIN_HAL.MUXLAB4p.o)
LinIf_ScheduleRequest                             ../../prjgcc/MUXlab4/lib\libMUXlab4p.a(LIN_HAL.MUXLAB4p.o)
LinIf_UpdateFrameSignals                          ../../prjgcc/MUXlab4/lib\libMUXlab4p.a(LIN_HAL.MUXLAB4p.o)
MAX13036_ApplyCfg                                 ../../prjgcc/MUXlab4/lib\libMUXlab4p.a(SPI.MUXLAB4p.o)
                                                  ../../prjgcc/MUXlab4/lib\libMUXlab4p.a(wakeup_HAL.MUXLAB4p.o)
                                                  ../../prjgcc/MUXlab4/lib\libMUXlab4p.a(GPIO_HAL.MUXLAB4p.o)
MAX13036_EnableIRQ                                ../../prjgcc/MUXlab4/lib\libMUXlab4p.a(SPI.MUXLAB4p.o)
                                                  ../../prjgcc/MUXlab4/lib\libMUXlab4p.a(wakeup_HAL.MUXLAB4p.o)
                                                  ../../prjgcc/MUXlab4/lib\libMUXlab4p.a(GPIO_HAL.MUXLAB4p.o)
MAX13036_IRQ                                      ../../prjgcc/MUXlab4/lib\libMUXlab4p.a(SPI.MUXLAB4p.o)
                                                  ../../prjgcc/MUXlab4/lib\libMUXlab4p.a(IntcIsrVectors.MUXLAB4p.o)
MAX13036_ReadWrite                                ../../prjgcc/MUXlab4/lib\libMUXlab4p.a(SPI.MUXLAB4p.o)
MCUMotor_Temp_Warning                             ./obj/FlashData.o
                                                  ./obj/MainTask.o
MCU_Ignition                                      ./obj/FlashData.o
MainTask                                          ./obj/MainTask.o
                                                  ./obj/APP_MainTask.o
                                                  ./obj/TBRe_Mod.o
MainTaskId                                        ./obj/APP_MainTask.o
                                                  ./obj/APP_Tasks.o
MainTask_Init                                     ./obj/MainTask.o
                                                  ./obj/TBRe_Mod.o
MainTask_Start                                    ./obj/MainTask.o
                                                  ./obj/TBRe_Mod.o
MainTask_Update                                   ./obj/MainTask.o
                                                  ./obj/APP_MainTask.o
                                                  ./obj/TBRe_Mod.o
Max_Regen                                         ./obj/FlashData.o
Max_Torque_Boost                                  ./obj/FlashData.o
Max_Torque_Std                                    ./obj/FlashData.o
MdlInitialize                                     ./obj/TBRe_Mod.o
MdlInitializeSampleTimes                          ./obj/TBRe_Mod.o
MdlInitializeSizes                                ./obj/TBRe_Mod.o
MdlOutputs                                        ./obj/TBRe_Mod.o
MdlStart                                          ./obj/TBRe_Mod.o
                                                  ./obj/APP_Tasks.o
MdlTerminate                                      ./obj/TBRe_Mod.o
MdlUpdate                                         ./obj/TBRe_Mod.o
MinTC_Torque                                      ./obj/FlashData.o
Motor_To_Road_Speed_Ratio                         ./obj/FlashData.o
Name_task_DiagnosticsCAN                          ./obj/APP_Tasks.o
Name_task_MainTask                                ./obj/APP_Tasks.o
OS_ActivateEventTask                              ../../prjgcc/MUXlab4/lib\libMUXlab4p.a(OS_Core.MUXLAB4p.o)
                                                  ../../prjgcc/MUXlab4/lib\libMUXlab4p.a(can.MUXLAB4p.o)
                                                  ../../prjgcc/MUXlab4/lib\libMUXlab4p.a(USB.MUXLAB4p.o)
                                                  ../../prjgcc/MUXlab4/lib\libMUXlab4p.a(SPI.MUXLAB4p.o)
                                                  ../../prjgcc/MUXlab4/lib\libMUXlab4p.a(LIN.MUXLAB4p.o)
                                                  ../../prjgcc/MUXlab4/lib\libMUXlab4p.a(CAN_J1939.MUXLAB4p.o)
OS_ActivatePeriodicTask                           ../../prjgcc/MUXlab4/lib\libMUXlab4p.a(OS_Core.MUXLAB4p.o)
                                                  ../../prjgcc/MUXlab4/lib\libMUXlab4p.a(GasSensor.MUXLAB4p.o)
OS_BackgroundTask                                 ../../prjgcc/MUXlab4/lib\libMUXlab4p.a(OS_Core.MUXLAB4p.o)
OS_ChangePeriodicTaskPeriod                       ../../prjgcc/MUXlab4/lib\libMUXlab4p.a(OS_Core.MUXLAB4p.o)
                                                  ../../prjgcc/MUXlab4/lib\libMUXlab4p.a(GasSensor.MUXLAB4p.o)
OS_CreateEventTask                                ../../prjgcc/MUXlab4/lib\libMUXlab4p.a(OS_Core.MUXLAB4p.o)
                                                  ../../prjgcc/MUXlab4/lib\libMUXlab4p.a(CCP_HAL.MUXLAB4p.o)
                                                  ../../prjgcc/MUXlab4/lib\libMUXlab4p.a(CAN_J1939.MUXLAB4p.o)
                                                  ./obj/APP_Tasks.o
OS_CreatePeriodicTask                             ../../prjgcc/MUXlab4/lib\libMUXlab4p.a(OS_Core.MUXLAB4p.o)
                                                  ../../prjgcc/MUXlab4/lib\libMUXlab4p.a(GasSensor.MUXLAB4p.o)
                                                  ../../prjgcc/MUXlab4/lib\libMUXlab4p.a(LIN_HAL.MUXLAB4p.o)
OS_CreatePeriodicTaskPrio                         ../../prjgcc/MUXlab4/lib\libMUXlab4p.a(OS_Core.MUXLAB4p.o)
                                                  ./obj/APP_Tasks.o
OS_DequeueEventTask                               ../../prjgcc/MUXlab4/lib\libMUXlab4p.a(OS_Core.MUXLAB4p.o)
OS_EnqueueEventTask                               ../../prjgcc/MUXlab4/lib\libMUXlab4p.a(OS_Core.MUXLAB4p.o)
OS_Finalyse                                       ../../prjgcc/MUXlab4/lib\libMUXlab4p.a(OS_Core.MUXLAB4p.o)
OS_InitOs                                         ../../prjgcc/MUXlab4/lib\libMUXlab4p.a(OS_Core.MUXLAB4p.o)
                                                  ../../prjgcc/MUXlab4/lib\libMUXlab4p.a(libMUXlab4.MUXLAB4p.o)
OS_InsertPeriodicTask                             ../../prjgcc/MUXlab4/lib\libMUXlab4p.a(OS_Core.MUXLAB4p.o)
OS_IsPeriodicTaskActive                           ../../prjgcc/MUXlab4/lib\libMUXlab4p.a(OS_Core.MUXLAB4p.o)
                                                  ../../prjgcc/MUXlab4/lib\libMUXlab4p.a(GasSensor.MUXLAB4p.o)
OS_RemovePeriodicTask                             ../../prjgcc/MUXlab4/lib\libMUXlab4p.a(OS_Core.MUXLAB4p.o)
OS_Scheduler                                      ../../prjgcc/MUXlab4/lib\libMUXlab4p.a(USB.MUXLAB4p.o)
                                                  ../../prjgcc/MUXlab4/lib\libMUXlab4p.a(OS_Core.MUXLAB4p.o)
OS_ShutdownOs                                     ../../prjgcc/MUXlab4/lib\libMUXlab4p.a(OS_Core.MUXLAB4p.o)
OS_StartAll                                       ../../prjgcc/MUXlab4/lib\libMUXlab4p.a(OS_Core.MUXLAB4p.o)
                                                  ./obj/main.o
OS_TickTimer                                      ../../prjgcc/MUXlab4/lib\libMUXlab4p.a(OS_Core.MUXLAB4p.o)
                                                  ../../prjgcc/MUXlab4/lib\libMUXlab4p.a(IntcIsrVectors.MUXLAB4p.o)
Point_CRC_data                                    ./obj/TBRe_Mod_data.o
                                                  ./obj/TBRe_Mod.o
                                                  ./obj/MainTask.o
                                                  ./obj/FlashData.o
                                                  ./obj/DiagnosticsCAN.o
Point_CRC_data2                                   ./obj/TBRe_Mod_data.o
                                                  ./obj/TBRe_Mod.o
                                                  ./obj/MainTask.o
                                                  ./obj/FlashData.o
                                                  ./obj/DiagnosticsCAN.o
Regen_Coast                                       ./obj/FlashData.o
SOC_Calc_Breakpoint                               ./obj/TBRe_Mod.o
                                                  ./obj/MainTask.o
SOC_Calc_Data                                     ./obj/TBRe_Mod.o
                                                  ./obj/MainTask.o
SOFT_SPI_Init                                     ../../prjgcc/MUXlab4/lib\libMUXlab4p.a(SoftSPI.MUXLAB4p.o)
                                                  ../../prjgcc/MUXlab4/lib\libMUXlab4p.a(GasSensor.MUXLAB4p.o)
SOFT_SPI_TimerIRQ                                 ../../prjgcc/MUXlab4/lib\libMUXlab4p.a(SoftSPI.MUXLAB4p.o)
                                                  ../../prjgcc/MUXlab4/lib\libMUXlab4p.a(IntcIsrVectors.MUXLAB4p.o)
SOFT_SPI_Write                                    ../../prjgcc/MUXlab4/lib\libMUXlab4p.a(SoftSPI.MUXLAB4p.o)
                                                  ../../prjgcc/MUXlab4/lib\libMUXlab4p.a(GasSensor.MUXLAB4p.o)
SPIB_EOQF                                         ../../prjgcc/MUXlab4/lib\libMUXlab4p.a(SPI.MUXLAB4p.o)
                                                  ../../prjgcc/MUXlab4/lib\libMUXlab4p.a(IntcIsrVectors.MUXLAB4p.o)
SPI_ConfigCTAR                                    ../../prjgcc/MUXlab4/lib\libMUXlab4p.a(SPI.MUXLAB4p.o)
                                                  ../../prjgcc/MUXlab4/lib\libMUXlab4p.a(USB.MUXLAB4p.o)
SPI_Init                                          ../../prjgcc/MUXlab4/lib\libMUXlab4p.a(SPI.MUXLAB4p.o)
                                                  ../../prjgcc/MUXlab4/lib\libMUXlab4p.a(USB.MUXLAB4p.o)
                                                  ../../prjgcc/MUXlab4/lib\libMUXlab4p.a(GPIO_HAL.MUXLAB4p.o)
                                                  ../../prjgcc/MUXlab4/lib\libMUXlab4p.a(eTPU_HAL.MUXLAB4p.o)
SignalLentgh                                      ./obj/TBRe_Mod_data.o
                                                  ./obj/TBRe_Mod.o
                                                  ./obj/MainTask.o
                                                  ./obj/FlashData.o
                                                  ./obj/DiagnosticsCAN.o
Start_transmitTP_PGN                              ../../prjgcc/MUXlab4/lib\libMUXlab4p.a(CAN_J1939.MUXLAB4p.o)
TBRe_Mod                                          ./obj/TBRe_Mod.o
TBRe_Mod_B                                        ./obj/TBRe_Mod.o
                                                  ./obj/MainTask.o
                                                  ./obj/FlashData.o
                                                  ./obj/DiagnosticsCAN.o
TBRe_Mod_ConstB                                   ./obj/TBRe_Mod_data.o
                                                  ./obj/DiagnosticsCAN.o
TBRe_Mod_ConstP                                   ./obj/TBRe_Mod_data.o
                                                  ./obj/MainTask.o
TBRe_Mod_DW                                       ./obj/TBRe_Mod.o
                                                  ./obj/MainTask.o
TBRe_Mod_M                                        ./obj/TBRe_Mod.o
TBRe_Mod_M_                                       ./obj/TBRe_Mod.o
TC_P_Gain                                         ./obj/FlashData.o
TP_status                                         ../../prjgcc/MUXlab4/lib\libMUXlab4p.a(CAN_J1939.MUXLAB4p.o)
Table_PGN                                         ../../prjgcc/MUXlab4/lib\libMUXlab4p.a(CAN_J1939.MUXLAB4p.o)
Target_Slip_Ratio                                 ./obj/FlashData.o
Throttle1_High                                    ./obj/FlashData.o
                                                  ./obj/MainTask.o
Throttle1_Low                                     ./obj/FlashData.o
                                                  ./obj/MainTask.o
Throttle2_High                                    ./obj/FlashData.o
                                                  ./obj/MainTask.o
Throttle2_Low                                     ./obj/FlashData.o
                                                  ./obj/MainTask.o
Throttle_Active_Threshold                         ./obj/FlashData.o
                                                  ./obj/MainTask.o
USBFifoRX                                         ../../prjgcc/MUXlab4/lib\libMUXlab4p.a(USB.MUXLAB4p.o)
USBFifoTX                                         ../../prjgcc/MUXlab4/lib\libMUXlab4p.a(USB.MUXLAB4p.o)
USBPendingTaskActivated                           ../../prjgcc/MUXlab4/lib\libMUXlab4p.a(USB.MUXLAB4p.o)
USBState                                          ../../prjgcc/MUXlab4/lib\libMUXlab4p.a(USB.MUXLAB4p.o)
USBTrace_ConvertHexToStr                          ../../prjgcc/MUXlab4/lib\libMUXlab4p.a(USB.MUXLAB4p.o)
USBTrace_ConvertIntToStr                          ../../prjgcc/MUXlab4/lib\libMUXlab4p.a(USB.MUXLAB4p.o)
USB_FifoClearRX                                   ../../prjgcc/MUXlab4/lib\libMUXlab4p.a(USB.MUXLAB4p.o)
USB_FifoClearTX                                   ../../prjgcc/MUXlab4/lib\libMUXlab4p.a(USB.MUXLAB4p.o)
USB_FifoRead                                      ../../prjgcc/MUXlab4/lib\libMUXlab4p.a(USB.MUXLAB4p.o)
USB_FifoReadByte                                  ../../prjgcc/MUXlab4/lib\libMUXlab4p.a(USB.MUXLAB4p.o)
USB_FifoReadDWord                                 ../../prjgcc/MUXlab4/lib\libMUXlab4p.a(USB.MUXLAB4p.o)
USB_FifoReadWord                                  ../../prjgcc/MUXlab4/lib\libMUXlab4p.a(USB.MUXLAB4p.o)
USB_FifoSkipData                                  ../../prjgcc/MUXlab4/lib\libMUXlab4p.a(USB.MUXLAB4p.o)
USB_Init                                          ../../prjgcc/MUXlab4/lib\libMUXlab4p.a(USB.MUXLAB4p.o)
                                                  ../../prjgcc/MUXlab4/lib\libMUXlab4p.a(libMUXlab4.MUXLAB4p.o)
USB_MessageBoardState                             ../../prjgcc/MUXlab4/lib\libMUXlab4p.a(USB.MUXLAB4p.o)
USB_MessageEcho                                   ../../prjgcc/MUXlab4/lib\libMUXlab4p.a(USB.MUXLAB4p.o)
USB_MessageFlagAppli                              ../../prjgcc/MUXlab4/lib\libMUXlab4p.a(USB.MUXLAB4p.o)
USB_MessageGetEthCfg                              ../../prjgcc/MUXlab4/lib\libMUXlab4p.a(USB.MUXLAB4p.o)
USB_MessageGetMacAddr                             ../../prjgcc/MUXlab4/lib\libMUXlab4p.a(USB.MUXLAB4p.o)
USB_MessageGetNumberOfTasks                       ../../prjgcc/MUXlab4/lib\libMUXlab4p.a(USB.MUXLAB4p.o)
USB_MessageGetProfilingData                       ../../prjgcc/MUXlab4/lib\libMUXlab4p.a(USB.MUXLAB4p.o)
USB_MessageGetTaskName                            ../../prjgcc/MUXlab4/lib\libMUXlab4p.a(USB.MUXLAB4p.o)
USB_MessageReadSerialNb                           ../../prjgcc/MUXlab4/lib\libMUXlab4p.a(USB.MUXLAB4p.o)
USB_MessageReadStandalone                         ../../prjgcc/MUXlab4/lib\libMUXlab4p.a(USB.MUXLAB4p.o)
USB_MessageReadString                             ../../prjgcc/MUXlab4/lib\libMUXlab4p.a(USB.MUXLAB4p.o)
USB_MessageReset                                  ../../prjgcc/MUXlab4/lib\libMUXlab4p.a(USB.MUXLAB4p.o)
USB_MessageResetTasksStats                        ../../prjgcc/MUXlab4/lib\libMUXlab4p.a(USB.MUXLAB4p.o)
USB_MessageRxVariable                             ../../prjgcc/MUXlab4/lib\libMUXlab4p.a(USB.MUXLAB4p.o)
USB_MessageSetEthCfg                              ../../prjgcc/MUXlab4/lib\libMUXlab4p.a(USB.MUXLAB4p.o)
USB_MessageSetMacAddr                             ../../prjgcc/MUXlab4/lib\libMUXlab4p.a(USB.MUXLAB4p.o)
USB_MessageTxVariableOnRequest                    ../../prjgcc/MUXlab4/lib\libMUXlab4p.a(USB.MUXLAB4p.o)
USB_ProcessMessage                                ../../prjgcc/MUXlab4/lib\libMUXlab4p.a(USB.MUXLAB4p.o)
                                                  ../../prjgcc/MUXlab4/lib\libMUXlab4p.a(OS_Core.MUXLAB4p.o)
USB_ProcessReceivedByte                           ../../prjgcc/MUXlab4/lib\libMUXlab4p.a(USB.MUXLAB4p.o)
USB_Read                                          ../../prjgcc/MUXlab4/lib\libMUXlab4p.a(USB.MUXLAB4p.o)
                                                  ../../prjgcc/MUXlab4/lib\libMUXlab4p.a(IntcIsrVectors.MUXLAB4p.o)
USB_SendData                                      ../../prjgcc/MUXlab4/lib\libMUXlab4p.a(USB.MUXLAB4p.o)
USB_SendErrorMessage                              ../../prjgcc/MUXlab4/lib\libMUXlab4p.a(USB.MUXLAB4p.o)
                                                  ../../prjgcc/MUXlab4/lib\libMUXlab4p.a(OS_Core.MUXLAB4p.o)
USB_SendPendingData                               ../../prjgcc/MUXlab4/lib\libMUXlab4p.a(USB.MUXLAB4p.o)
                                                  ../../prjgcc/MUXlab4/lib\libMUXlab4p.a(OS_Core.MUXLAB4p.o)
USB_StrlLen                                       ../../prjgcc/MUXlab4/lib\libMUXlab4p.a(USB.MUXLAB4p.o)
USB_ToolPresent                                   ../../prjgcc/MUXlab4/lib\libMUXlab4p.a(USB.MUXLAB4p.o)
USB_TxVariable                                    ../../prjgcc/MUXlab4/lib\libMUXlab4p.a(USB.MUXLAB4p.o)
                                                  ./obj/MainTask.o
Voltage_Act_Breakpoint                            ./obj/TBRe_Mod.o
                                                  ./obj/MainTask.o
Voltage_Act_Data                                  ./obj/TBRe_Mod.o
                                                  ./obj/MainTask.o
WKUP_GoToSleep                                    ../../prjgcc/MUXlab4/lib\libMUXlab4p.a(wakeup_HAL.MUXLAB4p.o)
WKUP_Verify                                       ../../prjgcc/MUXlab4/lib\libMUXlab4p.a(wakeup_HAL.MUXLAB4p.o)
                                                  ./obj/APP_Tasks.o
Wheel_Size                                        ./obj/FlashData.o
                                                  ./obj/DiagnosticsCAN.o
_SDA2_BASE_                                       ./obj/CAN_INIT.o
                                                  C:/Program Files (x86)/Nsi/powerpc-eabispe/bin/../lib/gcc/powerpc-eabispe/3.4.4\libgcc.a(eabi.o)
                                                  ./obj/mpc5500_asmcfg.o
_SDA_BASE_                                        ./obj/CAN_INIT.o
                                                  C:/Program Files (x86)/Nsi/powerpc-eabispe/bin/../lib/gcc/powerpc-eabispe/3.4.4\libgcc.a(eabi.o)
                                                  ./obj/mpc5500_asmcfg.o
__BSS_SIZE                                        ./obj/mpc5500_asmcfg.o
__DATA_ROM                                        ./obj/mpc5500_asmcfg.o
__IV_ADDR                                         ../../prjgcc/MUXlab4/lib\libMUXlab4p.a(IRQ.MUXLAB4p.o)
__ROM_COPY_SIZE                                   ./obj/mpc5500_asmcfg.o
__SBSS2_END__                                     C:/Program Files (x86)/Nsi/powerpc-eabispe/bin/../lib/gcc/powerpc-eabispe/3.4.4\libgcc.a(eabi.o)
__SBSS_ADDR                                       ./obj/mpc5500_asmcfg.o
__SBSS_END__                                      C:/Program Files (x86)/Nsi/powerpc-eabispe/bin/../lib/gcc/powerpc-eabispe/3.4.4\libgcc.a(eabi.o)
__SDATA2_START__                                  C:/Program Files (x86)/Nsi/powerpc-eabispe/bin/../lib/gcc/powerpc-eabispe/3.4.4\libgcc.a(eabi.o)
__SDATA_START__                                   C:/Program Files (x86)/Nsi/powerpc-eabispe/bin/../lib/gcc/powerpc-eabispe/3.4.4\libgcc.a(eabi.o)
__SP_END                                          ./obj/mpc5500_asmcfg.o
__SP_INIT                                         ./obj/mpc5500_asmcfg.o
__SRAM_CPY_START                                  ./obj/mpc5500_asmcfg.o
__SRAM_LOAD                                       ./obj/mpc5500_asmcfg.o
__SRAM_LOAD_SIZE                                  ./obj/mpc5500_asmcfg.o
__STACK_SIZE                                      ./obj/mpc5500_asmcfg.o
__adddf3                                          C:/Program Files (x86)/Nsi/powerpc-eabispe/bin/../lib/gcc/powerpc-eabispe/3.4.4\libgcc.a(_addsub_df.o)
                                                  C:/Program Files (x86)/Nsi/powerpc-eabispe/bin/../lib/gcc/powerpc-eabispe/3.4.4\libgcc.a(_fixunsdfsi.o)
                                                  C:/Program Files (x86)/Nsi/powerpc-eabispe/bin/../lib/gcc/powerpc-eabispe/3.4.4/../../../../powerpc-eabispe/lib\libm.a(s_floor.o)
                                                  C:/Program Files (x86)/Nsi/powerpc-eabispe/bin/../lib/gcc/powerpc-eabispe/3.4.4/../../../../powerpc-eabispe/lib\libm.a(s_ceil.o)
                                                  ./obj/TBRe_Mod.o
                                                  ./obj/MainTask.o
__ashldi3                                         C:/Program Files (x86)/Nsi/powerpc-eabispe/bin/../lib/gcc/powerpc-eabispe/3.4.4\libgcc.a(_ashldi3.o)
                                                  C:/Program Files (x86)/Nsi/powerpc-eabispe/bin/../lib/gcc/powerpc-eabispe/3.4.4\libgcc.a(_pack_df.o)
__divdf3                                          C:/Program Files (x86)/Nsi/powerpc-eabispe/bin/../lib/gcc/powerpc-eabispe/3.4.4\libgcc.a(_div_df.o)
                                                  ./obj/TBRe_Mod.o
                                                  ./obj/MainTask.o
__eabi                                            C:/Program Files (x86)/Nsi/powerpc-eabispe/bin/../lib/gcc/powerpc-eabispe/3.4.4\libgcc.a(eabi.o)
                                                  ./obj/main.o
__eabi_convert                                    C:/Program Files (x86)/Nsi/powerpc-eabispe/bin/../lib/gcc/powerpc-eabispe/3.4.4\libgcc.a(eabi.o)
__eabi_uconvert                                   C:/Program Files (x86)/Nsi/powerpc-eabispe/bin/../lib/gcc/powerpc-eabispe/3.4.4\libgcc.a(eabi.o)
__eqdf2                                           C:/Program Files (x86)/Nsi/powerpc-eabispe/bin/../lib/gcc/powerpc-eabispe/3.4.4\libgcc.a(_eq_df.o)
                                                  ./obj/rt_nonfinite.o
__extendsfdf2                                     C:/Program Files (x86)/Nsi/powerpc-eabispe/bin/../lib/gcc/powerpc-eabispe/3.4.4\libgcc.a(_sf_to_df.o)
                                                  ./obj/rtGetNaN.o
                                                  ./obj/rtGetInf.o
                                                  ./obj/MainTask.o
__fixdfsi                                         C:/Program Files (x86)/Nsi/powerpc-eabispe/bin/../lib/gcc/powerpc-eabispe/3.4.4\libgcc.a(_df_to_si.o)
                                                  C:/Program Files (x86)/Nsi/powerpc-eabispe/bin/../lib/gcc/powerpc-eabispe/3.4.4\libgcc.a(_fixunsdfsi.o)
                                                  ./obj/MainTask.o
__fixunsdfsi                                      C:/Program Files (x86)/Nsi/powerpc-eabispe/bin/../lib/gcc/powerpc-eabispe/3.4.4\libgcc.a(_fixunsdfsi.o)
                                                  ./obj/TBRe_Mod.o
                                                  ./obj/MainTask.o
                                                  ./obj/DiagnosticsCAN.o
__floatsidf                                       C:/Program Files (x86)/Nsi/powerpc-eabispe/bin/../lib/gcc/powerpc-eabispe/3.4.4\libgcc.a(_si_to_df.o)
                                                  ./obj/TBRe_Mod.o
                                                  ./obj/MainTask.o
__fpcmp_parts_d                                   C:/Program Files (x86)/Nsi/powerpc-eabispe/bin/../lib/gcc/powerpc-eabispe/3.4.4\libgcc.a(_fpcmp_parts_df.o)
                                                  C:/Program Files (x86)/Nsi/powerpc-eabispe/bin/../lib/gcc/powerpc-eabispe/3.4.4\libgcc.a(_lt_df.o)
                                                  C:/Program Files (x86)/Nsi/powerpc-eabispe/bin/../lib/gcc/powerpc-eabispe/3.4.4\libgcc.a(_ge_df.o)
                                                  C:/Program Files (x86)/Nsi/powerpc-eabispe/bin/../lib/gcc/powerpc-eabispe/3.4.4\libgcc.a(_gt_df.o)
                                                  C:/Program Files (x86)/Nsi/powerpc-eabispe/bin/../lib/gcc/powerpc-eabispe/3.4.4\libgcc.a(_ne_df.o)
                                                  C:/Program Files (x86)/Nsi/powerpc-eabispe/bin/../lib/gcc/powerpc-eabispe/3.4.4\libgcc.a(_eq_df.o)
__gedf2                                           C:/Program Files (x86)/Nsi/powerpc-eabispe/bin/../lib/gcc/powerpc-eabispe/3.4.4\libgcc.a(_ge_df.o)
                                                  C:/Program Files (x86)/Nsi/powerpc-eabispe/bin/../lib/gcc/powerpc-eabispe/3.4.4\libgcc.a(_fixunsdfsi.o)
                                                  ./obj/MainTask.o
__gtdf2                                           C:/Program Files (x86)/Nsi/powerpc-eabispe/bin/../lib/gcc/powerpc-eabispe/3.4.4\libgcc.a(_gt_df.o)
                                                  C:/Program Files (x86)/Nsi/powerpc-eabispe/bin/../lib/gcc/powerpc-eabispe/3.4.4/../../../../powerpc-eabispe/lib\libm.a(s_floor.o)
                                                  C:/Program Files (x86)/Nsi/powerpc-eabispe/bin/../lib/gcc/powerpc-eabispe/3.4.4/../../../../powerpc-eabispe/lib\libm.a(s_ceil.o)
                                                  ./obj/MainTask.o
__init                                            C:/Program Files (x86)/Nsi/powerpc-eabispe/bin/../lib/gcc/powerpc-eabispe/3.4.4\libgcc.a(eabi.o)
__lshrdi3                                         C:/Program Files (x86)/Nsi/powerpc-eabispe/bin/../lib/gcc/powerpc-eabispe/3.4.4\libgcc.a(_lshrdi3.o)
                                                  C:/Program Files (x86)/Nsi/powerpc-eabispe/bin/../lib/gcc/powerpc-eabispe/3.4.4\libgcc.a(_pack_df.o)
                                                  C:/Program Files (x86)/Nsi/powerpc-eabispe/bin/../lib/gcc/powerpc-eabispe/3.4.4\libgcc.a(_df_to_si.o)
__ltdf2                                           C:/Program Files (x86)/Nsi/powerpc-eabispe/bin/../lib/gcc/powerpc-eabispe/3.4.4\libgcc.a(_lt_df.o)
                                                  ./obj/MainTask.o
__make_dp                                         C:/Program Files (x86)/Nsi/powerpc-eabispe/bin/../lib/gcc/powerpc-eabispe/3.4.4\libgcc.a(_make_df.o)
                                                  C:/Program Files (x86)/Nsi/powerpc-eabispe/bin/../lib/gcc/powerpc-eabispe/3.4.4\libgcc.a(_sf_to_df.o)
__make_fp                                         C:/Program Files (x86)/Nsi/powerpc-eabispe/bin/../lib/gcc/powerpc-eabispe/3.4.4\libgcc.a(_make_sf.o)
                                                  C:/Program Files (x86)/Nsi/powerpc-eabispe/bin/../lib/gcc/powerpc-eabispe/3.4.4\libgcc.a(_df_to_sf.o)
__muldf3                                          C:/Program Files (x86)/Nsi/powerpc-eabispe/bin/../lib/gcc/powerpc-eabispe/3.4.4\libgcc.a(_mul_df.o)
                                                  ./obj/TBRe_Mod.o
                                                  ./obj/MainTask.o
__nedf2                                           C:/Program Files (x86)/Nsi/powerpc-eabispe/bin/../lib/gcc/powerpc-eabispe/3.4.4\libgcc.a(_ne_df.o)
                                                  ./obj/rt_nonfinite.o
__pack_d                                          C:/Program Files (x86)/Nsi/powerpc-eabispe/bin/../lib/gcc/powerpc-eabispe/3.4.4\libgcc.a(_pack_df.o)
                                                  C:/Program Files (x86)/Nsi/powerpc-eabispe/bin/../lib/gcc/powerpc-eabispe/3.4.4\libgcc.a(_make_df.o)
                                                  C:/Program Files (x86)/Nsi/powerpc-eabispe/bin/../lib/gcc/powerpc-eabispe/3.4.4\libgcc.a(_si_to_df.o)
                                                  C:/Program Files (x86)/Nsi/powerpc-eabispe/bin/../lib/gcc/powerpc-eabispe/3.4.4\libgcc.a(_div_df.o)
                                                  C:/Program Files (x86)/Nsi/powerpc-eabispe/bin/../lib/gcc/powerpc-eabispe/3.4.4\libgcc.a(_mul_df.o)
                                                  C:/Program Files (x86)/Nsi/powerpc-eabispe/bin/../lib/gcc/powerpc-eabispe/3.4.4\libgcc.a(_addsub_df.o)
__pack_f                                          C:/Program Files (x86)/Nsi/powerpc-eabispe/bin/../lib/gcc/powerpc-eabispe/3.4.4\libgcc.a(_pack_sf.o)
                                                  C:/Program Files (x86)/Nsi/powerpc-eabispe/bin/../lib/gcc/powerpc-eabispe/3.4.4\libgcc.a(_make_sf.o)
__start                                           ./obj/__start.o
                                                  ./obj/mpc5500_asmcfg.o
__subdf3                                          C:/Program Files (x86)/Nsi/powerpc-eabispe/bin/../lib/gcc/powerpc-eabispe/3.4.4\libgcc.a(_addsub_df.o)
                                                  ./obj/TBRe_Mod.o
                                                  ./obj/MainTask.o
__thenan_df                                       C:/Program Files (x86)/Nsi/powerpc-eabispe/bin/../lib/gcc/powerpc-eabispe/3.4.4\libgcc.a(_thenan_df.o)
                                                  C:/Program Files (x86)/Nsi/powerpc-eabispe/bin/../lib/gcc/powerpc-eabispe/3.4.4\libgcc.a(_div_df.o)
                                                  C:/Program Files (x86)/Nsi/powerpc-eabispe/bin/../lib/gcc/powerpc-eabispe/3.4.4\libgcc.a(_mul_df.o)
                                                  C:/Program Files (x86)/Nsi/powerpc-eabispe/bin/../lib/gcc/powerpc-eabispe/3.4.4\libgcc.a(_addsub_df.o)
__truncdfsf2                                      C:/Program Files (x86)/Nsi/powerpc-eabispe/bin/../lib/gcc/powerpc-eabispe/3.4.4\libgcc.a(_df_to_sf.o)
                                                  ./obj/MainTask.o
__udivdi3                                         C:/Program Files (x86)/Nsi/powerpc-eabispe/bin/../lib/gcc/powerpc-eabispe/3.4.4\libgcc.a(_udivdi3.o)
                                                  ../../prjgcc/MUXlab4/lib\libMUXlab4p.a(etpu_fpm.MUXLAB4p.o)
__umoddi3                                         C:/Program Files (x86)/Nsi/powerpc-eabispe/bin/../lib/gcc/powerpc-eabispe/3.4.4\libgcc.a(_umoddi3.o)
                                                  ../../prjgcc/MUXlab4/lib\libMUXlab4p.a(etpu_fpm.MUXLAB4p.o)
__unpack_d                                        C:/Program Files (x86)/Nsi/powerpc-eabispe/bin/../lib/gcc/powerpc-eabispe/3.4.4\libgcc.a(_unpack_df.o)
                                                  C:/Program Files (x86)/Nsi/powerpc-eabispe/bin/../lib/gcc/powerpc-eabispe/3.4.4\libgcc.a(_df_to_sf.o)
                                                  C:/Program Files (x86)/Nsi/powerpc-eabispe/bin/../lib/gcc/powerpc-eabispe/3.4.4\libgcc.a(_df_to_si.o)
                                                  C:/Program Files (x86)/Nsi/powerpc-eabispe/bin/../lib/gcc/powerpc-eabispe/3.4.4\libgcc.a(_lt_df.o)
                                                  C:/Program Files (x86)/Nsi/powerpc-eabispe/bin/../lib/gcc/powerpc-eabispe/3.4.4\libgcc.a(_ge_df.o)
                                                  C:/Program Files (x86)/Nsi/powerpc-eabispe/bin/../lib/gcc/powerpc-eabispe/3.4.4\libgcc.a(_gt_df.o)
                                                  C:/Program Files (x86)/Nsi/powerpc-eabispe/bin/../lib/gcc/powerpc-eabispe/3.4.4\libgcc.a(_ne_df.o)
                                                  C:/Program Files (x86)/Nsi/powerpc-eabispe/bin/../lib/gcc/powerpc-eabispe/3.4.4\libgcc.a(_eq_df.o)
                                                  C:/Program Files (x86)/Nsi/powerpc-eabispe/bin/../lib/gcc/powerpc-eabispe/3.4.4\libgcc.a(_div_df.o)
                                                  C:/Program Files (x86)/Nsi/powerpc-eabispe/bin/../lib/gcc/powerpc-eabispe/3.4.4\libgcc.a(_mul_df.o)
                                                  C:/Program Files (x86)/Nsi/powerpc-eabispe/bin/../lib/gcc/powerpc-eabispe/3.4.4\libgcc.a(_addsub_df.o)
__unpack_f                                        C:/Program Files (x86)/Nsi/powerpc-eabispe/bin/../lib/gcc/powerpc-eabispe/3.4.4\libgcc.a(_unpack_sf.o)
                                                  C:/Program Files (x86)/Nsi/powerpc-eabispe/bin/../lib/gcc/powerpc-eabispe/3.4.4\libgcc.a(_sf_to_df.o)
_restfpr_14                                       C:/Program Files (x86)/Nsi/powerpc-eabispe/bin/../lib/gcc/powerpc-eabispe/3.4.4/crtsavres.o
_restfpr_14_x                                     C:/Program Files (x86)/Nsi/powerpc-eabispe/bin/../lib/gcc/powerpc-eabispe/3.4.4/crtsavres.o
_restfpr_15                                       C:/Program Files (x86)/Nsi/powerpc-eabispe/bin/../lib/gcc/powerpc-eabispe/3.4.4/crtsavres.o
_restfpr_15_x                                     C:/Program Files (x86)/Nsi/powerpc-eabispe/bin/../lib/gcc/powerpc-eabispe/3.4.4/crtsavres.o
_restfpr_16                                       C:/Program Files (x86)/Nsi/powerpc-eabispe/bin/../lib/gcc/powerpc-eabispe/3.4.4/crtsavres.o
_restfpr_16_x                                     C:/Program Files (x86)/Nsi/powerpc-eabispe/bin/../lib/gcc/powerpc-eabispe/3.4.4/crtsavres.o
_restfpr_17                                       C:/Program Files (x86)/Nsi/powerpc-eabispe/bin/../lib/gcc/powerpc-eabispe/3.4.4/crtsavres.o
_restfpr_17_x                                     C:/Program Files (x86)/Nsi/powerpc-eabispe/bin/../lib/gcc/powerpc-eabispe/3.4.4/crtsavres.o
_restfpr_18                                       C:/Program Files (x86)/Nsi/powerpc-eabispe/bin/../lib/gcc/powerpc-eabispe/3.4.4/crtsavres.o
_restfpr_18_x                                     C:/Program Files (x86)/Nsi/powerpc-eabispe/bin/../lib/gcc/powerpc-eabispe/3.4.4/crtsavres.o
_restfpr_19                                       C:/Program Files (x86)/Nsi/powerpc-eabispe/bin/../lib/gcc/powerpc-eabispe/3.4.4/crtsavres.o
_restfpr_19_x                                     C:/Program Files (x86)/Nsi/powerpc-eabispe/bin/../lib/gcc/powerpc-eabispe/3.4.4/crtsavres.o
_restfpr_20                                       C:/Program Files (x86)/Nsi/powerpc-eabispe/bin/../lib/gcc/powerpc-eabispe/3.4.4/crtsavres.o
_restfpr_20_x                                     C:/Program Files (x86)/Nsi/powerpc-eabispe/bin/../lib/gcc/powerpc-eabispe/3.4.4/crtsavres.o
_restfpr_21                                       C:/Program Files (x86)/Nsi/powerpc-eabispe/bin/../lib/gcc/powerpc-eabispe/3.4.4/crtsavres.o
_restfpr_21_x                                     C:/Program Files (x86)/Nsi/powerpc-eabispe/bin/../lib/gcc/powerpc-eabispe/3.4.4/crtsavres.o
_restfpr_22                                       C:/Program Files (x86)/Nsi/powerpc-eabispe/bin/../lib/gcc/powerpc-eabispe/3.4.4/crtsavres.o
_restfpr_22_x                                     C:/Program Files (x86)/Nsi/powerpc-eabispe/bin/../lib/gcc/powerpc-eabispe/3.4.4/crtsavres.o
_restfpr_23                                       C:/Program Files (x86)/Nsi/powerpc-eabispe/bin/../lib/gcc/powerpc-eabispe/3.4.4/crtsavres.o
_restfpr_23_x                                     C:/Program Files (x86)/Nsi/powerpc-eabispe/bin/../lib/gcc/powerpc-eabispe/3.4.4/crtsavres.o
_restfpr_24                                       C:/Program Files (x86)/Nsi/powerpc-eabispe/bin/../lib/gcc/powerpc-eabispe/3.4.4/crtsavres.o
_restfpr_24_x                                     C:/Program Files (x86)/Nsi/powerpc-eabispe/bin/../lib/gcc/powerpc-eabispe/3.4.4/crtsavres.o
_restfpr_25                                       C:/Program Files (x86)/Nsi/powerpc-eabispe/bin/../lib/gcc/powerpc-eabispe/3.4.4/crtsavres.o
_restfpr_25_x                                     C:/Program Files (x86)/Nsi/powerpc-eabispe/bin/../lib/gcc/powerpc-eabispe/3.4.4/crtsavres.o
_restfpr_26                                       C:/Program Files (x86)/Nsi/powerpc-eabispe/bin/../lib/gcc/powerpc-eabispe/3.4.4/crtsavres.o
_restfpr_26_x                                     C:/Program Files (x86)/Nsi/powerpc-eabispe/bin/../lib/gcc/powerpc-eabispe/3.4.4/crtsavres.o
_restfpr_27                                       C:/Program Files (x86)/Nsi/powerpc-eabispe/bin/../lib/gcc/powerpc-eabispe/3.4.4/crtsavres.o
_restfpr_27_x                                     C:/Program Files (x86)/Nsi/powerpc-eabispe/bin/../lib/gcc/powerpc-eabispe/3.4.4/crtsavres.o
_restfpr_28                                       C:/Program Files (x86)/Nsi/powerpc-eabispe/bin/../lib/gcc/powerpc-eabispe/3.4.4/crtsavres.o
_restfpr_28_x                                     C:/Program Files (x86)/Nsi/powerpc-eabispe/bin/../lib/gcc/powerpc-eabispe/3.4.4/crtsavres.o
_restfpr_29                                       C:/Program Files (x86)/Nsi/powerpc-eabispe/bin/../lib/gcc/powerpc-eabispe/3.4.4/crtsavres.o
_restfpr_29_x                                     C:/Program Files (x86)/Nsi/powerpc-eabispe/bin/../lib/gcc/powerpc-eabispe/3.4.4/crtsavres.o
_restfpr_30                                       C:/Program Files (x86)/Nsi/powerpc-eabispe/bin/../lib/gcc/powerpc-eabispe/3.4.4/crtsavres.o
_restfpr_30_x                                     C:/Program Files (x86)/Nsi/powerpc-eabispe/bin/../lib/gcc/powerpc-eabispe/3.4.4/crtsavres.o
_restfpr_31                                       C:/Program Files (x86)/Nsi/powerpc-eabispe/bin/../lib/gcc/powerpc-eabispe/3.4.4/crtsavres.o
_restfpr_31_x                                     C:/Program Files (x86)/Nsi/powerpc-eabispe/bin/../lib/gcc/powerpc-eabispe/3.4.4/crtsavres.o
_restgpr_14                                       C:/Program Files (x86)/Nsi/powerpc-eabispe/bin/../lib/gcc/powerpc-eabispe/3.4.4/crtsavres.o
_restgpr_14_x                                     C:/Program Files (x86)/Nsi/powerpc-eabispe/bin/../lib/gcc/powerpc-eabispe/3.4.4/crtsavres.o
_restgpr_15                                       C:/Program Files (x86)/Nsi/powerpc-eabispe/bin/../lib/gcc/powerpc-eabispe/3.4.4/crtsavres.o
_restgpr_15_x                                     C:/Program Files (x86)/Nsi/powerpc-eabispe/bin/../lib/gcc/powerpc-eabispe/3.4.4/crtsavres.o
_restgpr_16                                       C:/Program Files (x86)/Nsi/powerpc-eabispe/bin/../lib/gcc/powerpc-eabispe/3.4.4/crtsavres.o
_restgpr_16_x                                     C:/Program Files (x86)/Nsi/powerpc-eabispe/bin/../lib/gcc/powerpc-eabispe/3.4.4/crtsavres.o
_restgpr_17                                       C:/Program Files (x86)/Nsi/powerpc-eabispe/bin/../lib/gcc/powerpc-eabispe/3.4.4/crtsavres.o
_restgpr_17_x                                     C:/Program Files (x86)/Nsi/powerpc-eabispe/bin/../lib/gcc/powerpc-eabispe/3.4.4/crtsavres.o
_restgpr_18                                       C:/Program Files (x86)/Nsi/powerpc-eabispe/bin/../lib/gcc/powerpc-eabispe/3.4.4/crtsavres.o
_restgpr_18_x                                     C:/Program Files (x86)/Nsi/powerpc-eabispe/bin/../lib/gcc/powerpc-eabispe/3.4.4/crtsavres.o
_restgpr_19                                       C:/Program Files (x86)/Nsi/powerpc-eabispe/bin/../lib/gcc/powerpc-eabispe/3.4.4/crtsavres.o
_restgpr_19_x                                     C:/Program Files (x86)/Nsi/powerpc-eabispe/bin/../lib/gcc/powerpc-eabispe/3.4.4/crtsavres.o
_restgpr_20                                       C:/Program Files (x86)/Nsi/powerpc-eabispe/bin/../lib/gcc/powerpc-eabispe/3.4.4/crtsavres.o
_restgpr_20_x                                     C:/Program Files (x86)/Nsi/powerpc-eabispe/bin/../lib/gcc/powerpc-eabispe/3.4.4/crtsavres.o
_restgpr_21                                       C:/Program Files (x86)/Nsi/powerpc-eabispe/bin/../lib/gcc/powerpc-eabispe/3.4.4/crtsavres.o
_restgpr_21_x                                     C:/Program Files (x86)/Nsi/powerpc-eabispe/bin/../lib/gcc/powerpc-eabispe/3.4.4/crtsavres.o
_restgpr_22                                       C:/Program Files (x86)/Nsi/powerpc-eabispe/bin/../lib/gcc/powerpc-eabispe/3.4.4/crtsavres.o
_restgpr_22_x                                     C:/Program Files (x86)/Nsi/powerpc-eabispe/bin/../lib/gcc/powerpc-eabispe/3.4.4/crtsavres.o
_restgpr_23                                       C:/Program Files (x86)/Nsi/powerpc-eabispe/bin/../lib/gcc/powerpc-eabispe/3.4.4/crtsavres.o
_restgpr_23_x                                     C:/Program Files (x86)/Nsi/powerpc-eabispe/bin/../lib/gcc/powerpc-eabispe/3.4.4/crtsavres.o
_restgpr_24                                       C:/Program Files (x86)/Nsi/powerpc-eabispe/bin/../lib/gcc/powerpc-eabispe/3.4.4/crtsavres.o
_restgpr_24_x                                     C:/Program Files (x86)/Nsi/powerpc-eabispe/bin/../lib/gcc/powerpc-eabispe/3.4.4/crtsavres.o
_restgpr_25                                       C:/Program Files (x86)/Nsi/powerpc-eabispe/bin/../lib/gcc/powerpc-eabispe/3.4.4/crtsavres.o
_restgpr_25_x                                     C:/Program Files (x86)/Nsi/powerpc-eabispe/bin/../lib/gcc/powerpc-eabispe/3.4.4/crtsavres.o
_restgpr_26                                       C:/Program Files (x86)/Nsi/powerpc-eabispe/bin/../lib/gcc/powerpc-eabispe/3.4.4/crtsavres.o
_restgpr_26_x                                     C:/Program Files (x86)/Nsi/powerpc-eabispe/bin/../lib/gcc/powerpc-eabispe/3.4.4/crtsavres.o
_restgpr_27                                       C:/Program Files (x86)/Nsi/powerpc-eabispe/bin/../lib/gcc/powerpc-eabispe/3.4.4/crtsavres.o
_restgpr_27_x                                     C:/Program Files (x86)/Nsi/powerpc-eabispe/bin/../lib/gcc/powerpc-eabispe/3.4.4/crtsavres.o
_restgpr_28                                       C:/Program Files (x86)/Nsi/powerpc-eabispe/bin/../lib/gcc/powerpc-eabispe/3.4.4/crtsavres.o
_restgpr_28_x                                     C:/Program Files (x86)/Nsi/powerpc-eabispe/bin/../lib/gcc/powerpc-eabispe/3.4.4/crtsavres.o
_restgpr_29                                       C:/Program Files (x86)/Nsi/powerpc-eabispe/bin/../lib/gcc/powerpc-eabispe/3.4.4/crtsavres.o
_restgpr_29_x                                     C:/Program Files (x86)/Nsi/powerpc-eabispe/bin/../lib/gcc/powerpc-eabispe/3.4.4/crtsavres.o
_restgpr_30                                       C:/Program Files (x86)/Nsi/powerpc-eabispe/bin/../lib/gcc/powerpc-eabispe/3.4.4/crtsavres.o
_restgpr_30_x                                     C:/Program Files (x86)/Nsi/powerpc-eabispe/bin/../lib/gcc/powerpc-eabispe/3.4.4/crtsavres.o
_restgpr_31                                       C:/Program Files (x86)/Nsi/powerpc-eabispe/bin/../lib/gcc/powerpc-eabispe/3.4.4/crtsavres.o
_restgpr_31_x                                     C:/Program Files (x86)/Nsi/powerpc-eabispe/bin/../lib/gcc/powerpc-eabispe/3.4.4/crtsavres.o
_savefpr_14                                       C:/Program Files (x86)/Nsi/powerpc-eabispe/bin/../lib/gcc/powerpc-eabispe/3.4.4/crtsavres.o
_savefpr_15                                       C:/Program Files (x86)/Nsi/powerpc-eabispe/bin/../lib/gcc/powerpc-eabispe/3.4.4/crtsavres.o
_savefpr_16                                       C:/Program Files (x86)/Nsi/powerpc-eabispe/bin/../lib/gcc/powerpc-eabispe/3.4.4/crtsavres.o
_savefpr_17                                       C:/Program Files (x86)/Nsi/powerpc-eabispe/bin/../lib/gcc/powerpc-eabispe/3.4.4/crtsavres.o
_savefpr_18                                       C:/Program Files (x86)/Nsi/powerpc-eabispe/bin/../lib/gcc/powerpc-eabispe/3.4.4/crtsavres.o
_savefpr_19                                       C:/Program Files (x86)/Nsi/powerpc-eabispe/bin/../lib/gcc/powerpc-eabispe/3.4.4/crtsavres.o
_savefpr_20                                       C:/Program Files (x86)/Nsi/powerpc-eabispe/bin/../lib/gcc/powerpc-eabispe/3.4.4/crtsavres.o
_savefpr_21                                       C:/Program Files (x86)/Nsi/powerpc-eabispe/bin/../lib/gcc/powerpc-eabispe/3.4.4/crtsavres.o
_savefpr_22                                       C:/Program Files (x86)/Nsi/powerpc-eabispe/bin/../lib/gcc/powerpc-eabispe/3.4.4/crtsavres.o
_savefpr_23                                       C:/Program Files (x86)/Nsi/powerpc-eabispe/bin/../lib/gcc/powerpc-eabispe/3.4.4/crtsavres.o
_savefpr_24                                       C:/Program Files (x86)/Nsi/powerpc-eabispe/bin/../lib/gcc/powerpc-eabispe/3.4.4/crtsavres.o
_savefpr_25                                       C:/Program Files (x86)/Nsi/powerpc-eabispe/bin/../lib/gcc/powerpc-eabispe/3.4.4/crtsavres.o
_savefpr_26                                       C:/Program Files (x86)/Nsi/powerpc-eabispe/bin/../lib/gcc/powerpc-eabispe/3.4.4/crtsavres.o
_savefpr_27                                       C:/Program Files (x86)/Nsi/powerpc-eabispe/bin/../lib/gcc/powerpc-eabispe/3.4.4/crtsavres.o
_savefpr_28                                       C:/Program Files (x86)/Nsi/powerpc-eabispe/bin/../lib/gcc/powerpc-eabispe/3.4.4/crtsavres.o
_savefpr_29                                       C:/Program Files (x86)/Nsi/powerpc-eabispe/bin/../lib/gcc/powerpc-eabispe/3.4.4/crtsavres.o
_savefpr_30                                       C:/Program Files (x86)/Nsi/powerpc-eabispe/bin/../lib/gcc/powerpc-eabispe/3.4.4/crtsavres.o
_savefpr_31                                       C:/Program Files (x86)/Nsi/powerpc-eabispe/bin/../lib/gcc/powerpc-eabispe/3.4.4/crtsavres.o
_savegpr_14                                       C:/Program Files (x86)/Nsi/powerpc-eabispe/bin/../lib/gcc/powerpc-eabispe/3.4.4/crtsavres.o
_savegpr_15                                       C:/Program Files (x86)/Nsi/powerpc-eabispe/bin/../lib/gcc/powerpc-eabispe/3.4.4/crtsavres.o
_savegpr_16                                       C:/Program Files (x86)/Nsi/powerpc-eabispe/bin/../lib/gcc/powerpc-eabispe/3.4.4/crtsavres.o
_savegpr_17                                       C:/Program Files (x86)/Nsi/powerpc-eabispe/bin/../lib/gcc/powerpc-eabispe/3.4.4/crtsavres.o
_savegpr_18                                       C:/Program Files (x86)/Nsi/powerpc-eabispe/bin/../lib/gcc/powerpc-eabispe/3.4.4/crtsavres.o
_savegpr_19                                       C:/Program Files (x86)/Nsi/powerpc-eabispe/bin/../lib/gcc/powerpc-eabispe/3.4.4/crtsavres.o
_savegpr_20                                       C:/Program Files (x86)/Nsi/powerpc-eabispe/bin/../lib/gcc/powerpc-eabispe/3.4.4/crtsavres.o
_savegpr_21                                       C:/Program Files (x86)/Nsi/powerpc-eabispe/bin/../lib/gcc/powerpc-eabispe/3.4.4/crtsavres.o
_savegpr_22                                       C:/Program Files (x86)/Nsi/powerpc-eabispe/bin/../lib/gcc/powerpc-eabispe/3.4.4/crtsavres.o
_savegpr_23                                       C:/Program Files (x86)/Nsi/powerpc-eabispe/bin/../lib/gcc/powerpc-eabispe/3.4.4/crtsavres.o
_savegpr_24                                       C:/Program Files (x86)/Nsi/powerpc-eabispe/bin/../lib/gcc/powerpc-eabispe/3.4.4/crtsavres.o
_savegpr_25                                       C:/Program Files (x86)/Nsi/powerpc-eabispe/bin/../lib/gcc/powerpc-eabispe/3.4.4/crtsavres.o
_savegpr_26                                       C:/Program Files (x86)/Nsi/powerpc-eabispe/bin/../lib/gcc/powerpc-eabispe/3.4.4/crtsavres.o
_savegpr_27                                       C:/Program Files (x86)/Nsi/powerpc-eabispe/bin/../lib/gcc/powerpc-eabispe/3.4.4/crtsavres.o
_savegpr_28                                       C:/Program Files (x86)/Nsi/powerpc-eabispe/bin/../lib/gcc/powerpc-eabispe/3.4.4/crtsavres.o
_savegpr_29                                       C:/Program Files (x86)/Nsi/powerpc-eabispe/bin/../lib/gcc/powerpc-eabispe/3.4.4/crtsavres.o
_savegpr_30                                       C:/Program Files (x86)/Nsi/powerpc-eabispe/bin/../lib/gcc/powerpc-eabispe/3.4.4/crtsavres.o
_savegpr_31                                       C:/Program Files (x86)/Nsi/powerpc-eabispe/bin/../lib/gcc/powerpc-eabispe/3.4.4/crtsavres.o
applyDigitalInputsCfg                             ../../prjgcc/MUXlab4/lib\libMUXlab4p.a(GPIO_HAL.MUXLAB4p.o)
                                                  ./obj/APP_Tasks.o
boardType                                         ../../prjgcc/MUXlab4/lib\libMUXlab4p.a(libMUXlab4.MUXLAB4p.o)
breakDetectionState                               ../../prjgcc/MUXlab4/lib\libMUXlab4p.a(LIN.MUXLAB4p.o)
bufferToCanObj                                    ../../prjgcc/MUXlab4/lib\libMUXlab4p.a(can.MUXLAB4p.o)
                                                  ../../prjgcc/MUXlab4/lib\libMUXlab4p.a(CAN_HAL.MUXLAB4p.o)
bufferToEventID                                   ../../prjgcc/MUXlab4/lib\libMUXlab4p.a(can.MUXLAB4p.o)
                                                  ../../prjgcc/MUXlab4/lib\libMUXlab4p.a(CAN_HAL.MUXLAB4p.o)
bufferToGateway                                   ../../prjgcc/MUXlab4/lib\libMUXlab4p.a(can.MUXLAB4p.o)
                                                  ../../prjgcc/MUXlab4/lib\libMUXlab4p.a(CAN_HAL.MUXLAB4p.o)
callbackSoftSpi                                   ../../prjgcc/MUXlab4/lib\libMUXlab4p.a(SoftSPI.MUXLAB4p.o)
canErrSaveHS                                      ../../prjgcc/MUXlab4/lib\libMUXlab4p.a(can.MUXLAB4p.o)
canErrSaveLS                                      ../../prjgcc/MUXlab4/lib\libMUXlab4p.a(can.MUXLAB4p.o)
canStatistics                                     ../../prjgcc/MUXlab4/lib\libMUXlab4p.a(can.MUXLAB4p.o)
                                                  ../../prjgcc/MUXlab4/lib\libMUXlab4p.a(GPIO_HAL.MUXLAB4p.o)
                                                  ../../prjgcc/MUXlab4/lib\libMUXlab4p.a(CAN_HAL.MUXLAB4p.o)
ccp                                               ../../prjgcc/MUXlab4/lib\libMUXlab4p.a(CCP.MUXLAB4p.o)
ccpBackground                                     ../../prjgcc/MUXlab4/lib\libMUXlab4p.a(CCP.MUXLAB4p.o)
ccpDaq                                            ../../prjgcc/MUXlab4/lib\libMUXlab4p.a(CCP.MUXLAB4p.o)
ccpDisableNormalOperation                         ../../prjgcc/MUXlab4/lib\libMUXlab4p.a(CCP.MUXLAB4p.o)
ccpGetPointer                                     ../../prjgcc/MUXlab4/lib\libMUXlab4p.a(CCP.MUXLAB4p.o)
ccpInit                                           ../../prjgcc/MUXlab4/lib\libMUXlab4p.a(CCP.MUXLAB4p.o)
                                                  ../../prjgcc/MUXlab4/lib\libMUXlab4p.a(CCP_HAL.MUXLAB4p.o)
ccpQueueInit                                      ../../prjgcc/MUXlab4/lib\libMUXlab4p.a(CCP.MUXLAB4p.o)
ccpQueueWrite                                     ../../prjgcc/MUXlab4/lib\libMUXlab4p.a(CCP.MUXLAB4p.o)
ccpSend                                           ../../prjgcc/MUXlab4/lib\libMUXlab4p.a(CCP.MUXLAB4p.o)
ccpSendCallBack                                   ../../prjgcc/MUXlab4/lib\libMUXlab4p.a(CCP.MUXLAB4p.o)
                                                  ../../prjgcc/MUXlab4/lib\libMUXlab4p.a(CCP_HAL.MUXLAB4p.o)
ccpSendCrm                                        ../../prjgcc/MUXlab4/lib\libMUXlab4p.a(CCP.MUXLAB4p.o)
ccpSendDebug                                      ../../prjgcc/MUXlab4/lib\libMUXlab4p.a(CCP.MUXLAB4p.o)
ccpStationId                                      ../../prjgcc/MUXlab4/lib\libMUXlab4p.a(CCP.MUXLAB4p.o)
ccpUserBackground                                 ../../prjgcc/MUXlab4/lib\libMUXlab4p.a(CCP.MUXLAB4p.o)
ccp_DAQ_call                                      ../../prjgcc/MUXlab4/lib\libMUXlab4p.a(CCP.MUXLAB4p.o)
ccpcommand                                        ../../prjgcc/MUXlab4/lib\libMUXlab4p.a(CCP.MUXLAB4p.o)
ceil                                              C:/Program Files (x86)/Nsi/powerpc-eabispe/bin/../lib/gcc/powerpc-eabispe/3.4.4/../../../../powerpc-eabispe/lib\libm.a(s_ceil.o)
                                                  ./obj/MainTask.o
cfgFreq100K                                       ../../prjgcc/MUXlab4/lib\libMUXlab4p.a(eTPU_HAL.MUXLAB4p.o)
cfgFreq10K                                        ../../prjgcc/MUXlab4/lib\libMUXlab4p.a(eTPU_HAL.MUXLAB4p.o)
cfg_BSS                                           ./obj/mpc5500_asmcfg.o
                                                  ./obj/__start.o
cfg_CACHE                                         ./obj/mpc5500_asmcfg.o
                                                  ./obj/__start.o
cfg_CSn_BR                                        ../../prjgcc/MUXlab4/lib\libMUXlab4p.a(mpc5500_ccdcfg.MUXLAB4p.o)
cfg_CSn_OR                                        ../../prjgcc/MUXlab4/lib\libMUXlab4p.a(mpc5500_ccdcfg.MUXLAB4p.o)
cfg_EBI                                           ../../prjgcc/MUXlab4/lib\libMUXlab4p.a(mpc5500_ccdcfg.MUXLAB4p.o)
cfg_EBI_mod                                       ../../prjgcc/MUXlab4/lib\libMUXlab4p.a(mpc5500_ccdcfg.MUXLAB4p.o)
cfg_FLASH                                         ./obj/mpc5500_asmcfg.o
                                                  ./obj/__start.o
cfg_FMPLL                                         ./obj/mpc5500_asmcfg.o
                                                  ./obj/__start.o
cfg_MMU                                           ./obj/mpc5500_asmcfg.o
                                                  ./obj/__start.o
cfg_PBRIDGE                                       ../../prjgcc/MUXlab4/lib\libMUXlab4p.a(mpc5500_ccdcfg.MUXLAB4p.o)
cfg_PCR                                           ../../prjgcc/MUXlab4/lib\libMUXlab4p.a(mpc5500_ccdcfg.MUXLAB4p.o)
cfg_PCR_ADDR                                      ../../prjgcc/MUXlab4/lib\libMUXlab4p.a(mpc5500_ccdcfg.MUXLAB4p.o)
cfg_PCR_CTRL                                      ../../prjgcc/MUXlab4/lib\libMUXlab4p.a(mpc5500_ccdcfg.MUXLAB4p.o)
cfg_PCR_DATA                                      ../../prjgcc/MUXlab4/lib\libMUXlab4p.a(mpc5500_ccdcfg.MUXLAB4p.o)
cfg_PNTRS                                         ./obj/mpc5500_asmcfg.o
                                                  ./obj/__start.o
cfg_ROMCPY                                        ./obj/mpc5500_asmcfg.o
                                                  ./obj/__start.o
cfg_SRAM                                          ./obj/mpc5500_asmcfg.o
                                                  ./obj/__start.o
cfg_SRAM_LOAD                                     ./obj/mpc5500_asmcfg.o
cfg_STACK                                         ./obj/mpc5500_asmcfg.o
                                                  ./obj/__start.o
cfg_XBAR                                          ../../prjgcc/MUXlab4/lib\libMUXlab4p.a(mpc5500_ccdcfg.MUXLAB4p.o)
cfg_XCLKS                                         ../../prjgcc/MUXlab4/lib\libMUXlab4p.a(mpc5500_ccdcfg.MUXLAB4p.o)
cfg_mpc5500ccd                                    ../../prjgcc/MUXlab4/lib\libMUXlab4p.a(mpc5500_ccdcfg.MUXLAB4p.o)
                                                  ./obj/__start.o
continuousTransmission                            ../../prjgcc/MUXlab4/lib\libMUXlab4p.a(SoftSPI.MUXLAB4p.o)
crcError                                          ../../prjgcc/MUXlab4/lib\libMUXlab4p.a(GasSensor.MUXLAB4p.o)
currentMessageHeader                              ../../prjgcc/MUXlab4/lib\libMUXlab4p.a(USB.MUXLAB4p.o)
debug_buffer                                      ../../prjgcc/MUXlab4/lib\libMUXlab4p.a(CCP.MUXLAB4p.o)
digInputs                                         ../../prjgcc/MUXlab4/lib\libMUXlab4p.a(SPI.MUXLAB4p.o)
                                                  ../../prjgcc/MUXlab4/lib\libMUXlab4p.a(GPIO_HAL.MUXLAB4p.o)
dummy                                             ../../prjgcc/MUXlab4/lib\libMUXlab4p.a(IntcIsrVectors.MUXLAB4p.o)
dvnError                                          ../../prjgcc/MUXlab4/lib\libMUXlab4p.a(GasSensor.MUXLAB4p.o)
eTPU                                              ../../prjgcc/MUXlab4/lib\libMUXlab4p.a(libMUXlab4.MUXLAB4p.o)
                                                  ../../prjgcc/MUXlab4/lib\libMUXlab4p.a(etpu_ppa.MUXLAB4p.o)
                                                  ../../prjgcc/MUXlab4/lib\libMUXlab4p.a(etpu_pwm.MUXLAB4p.o)
                                                  ../../prjgcc/MUXlab4/lib\libMUXlab4p.a(etpu_fpm.MUXLAB4p.o)
                                                  ../../prjgcc/MUXlab4/lib\libMUXlab4p.a(etpu_util.MUXLAB4p.o)
eTPU_Configure100KFreqInput                       ../../prjgcc/MUXlab4/lib\libMUXlab4p.a(eTPU_HAL.MUXLAB4p.o)
                                                  ../../prjgcc/MUXlab4/lib\libMUXlab4p.a(SoftSPI.MUXLAB4p.o)
                                                  ../../prjgcc/MUXlab4/lib\libMUXlab4p.a(GasSensor.MUXLAB4p.o)
eTPU_Configure10KFreqInputPPA                     ../../prjgcc/MUXlab4/lib\libMUXlab4p.a(eTPU_HAL.MUXLAB4p.o)
                                                  ./obj/MainTask.o
eTPU_GetInputFreq                                 ../../prjgcc/MUXlab4/lib\libMUXlab4p.a(eTPU_HAL.MUXLAB4p.o)
                                                  ../../prjgcc/MUXlab4/lib\libMUXlab4p.a(SoftSPI.MUXLAB4p.o)
                                                  ../../prjgcc/MUXlab4/lib\libMUXlab4p.a(GasSensor.MUXLAB4p.o)
                                                  ./obj/MainTask.o
eTPU_Init                                         ../../prjgcc/MUXlab4/lib\libMUXlab4p.a(eTPU_HAL.MUXLAB4p.o)
                                                  ../../prjgcc/MUXlab4/lib\libMUXlab4p.a(libMUXlab4.MUXLAB4p.o)
eTPU_Irq                                          ../../prjgcc/MUXlab4/lib\libMUXlab4p.a(eTPU_HAL.MUXLAB4p.o)
                                                  ../../prjgcc/MUXlab4/lib\libMUXlab4p.a(IntcIsrVectors.MUXLAB4p.o)
eTPU_PWMUpdate                                    ../../prjgcc/MUXlab4/lib\libMUXlab4p.a(eTPU_HAL.MUXLAB4p.o)
emiosInputCaptureChannels                         ../../prjgcc/MUXlab4/lib\libMUXlab4p.a(LIN.MUXLAB4p.o)
emiosTimeoutChannels                              ../../prjgcc/MUXlab4/lib\libMUXlab4p.a(LIN.MUXLAB4p.o)
enableTimeBase                                    ../../prjgcc/MUXlab4/lib\libMUXlab4p.a(OS_TimeBase.MUXLAB4p.o)
                                                  ../../prjgcc/MUXlab4/lib\libMUXlab4p.a(OS_Core.MUXLAB4p.o)
enableWatchDog                                    ../../prjgcc/MUXlab4/lib\libMUXlab4p.a(libMUXlab4.MUXLAB4p.o)
etpu_code                                         ../../prjgcc/MUXlab4/lib\libMUXlab4p.a(eTPU_HAL.MUXLAB4p.o)
etpu_globals                                      ../../prjgcc/MUXlab4/lib\libMUXlab4p.a(eTPU_HAL.MUXLAB4p.o)
fifoCanTx                                         ../../prjgcc/MUXlab4/lib\libMUXlab4p.a(fifoCan.MUXLAB4p.o)
flexCanAddress                                    ../../prjgcc/MUXlab4/lib\libMUXlab4p.a(can.MUXLAB4p.o)
                                                  ../../prjgcc/MUXlab4/lib\libMUXlab4p.a(fifoCan.MUXLAB4p.o)
                                                  ../../prjgcc/MUXlab4/lib\libMUXlab4p.a(GPIO_HAL.MUXLAB4p.o)
                                                  ../../prjgcc/MUXlab4/lib\libMUXlab4p.a(CAN_J1939.MUXLAB4p.o)
                                                  ../../prjgcc/MUXlab4/lib\libMUXlab4p.a(CAN_HAL.MUXLAB4p.o)
floor                                             C:/Program Files (x86)/Nsi/powerpc-eabispe/bin/../lib/gcc/powerpc-eabispe/3.4.4/../../../../powerpc-eabispe/lib\libm.a(s_floor.o)
                                                  ./obj/MainTask.o
frameCheckSmartGw                                 ../../prjgcc/MUXlab4/lib\libMUXlab4p.a(can.MUXLAB4p.o)
                                                  ../../prjgcc/MUXlab4/lib\libMUXlab4p.a(CAN_HAL.MUXLAB4p.o)
frameIDToEventID                                  ../../prjgcc/MUXlab4/lib\libMUXlab4p.a(LIN.MUXLAB4p.o)
                                                  ../../prjgcc/MUXlab4/lib\libMUXlab4p.a(LIN_HAL.MUXLAB4p.o)
fs_etpu2_init                                     ../../prjgcc/MUXlab4/lib\libMUXlab4p.a(etpu_util.MUXLAB4p.o)
fs_etpu_chan_init                                 ../../prjgcc/MUXlab4/lib\libMUXlab4p.a(etpu_util.MUXLAB4p.o)
fs_etpu_clear_chan_dma_flag                       ../../prjgcc/MUXlab4/lib\libMUXlab4p.a(etpu_util.MUXLAB4p.o)
fs_etpu_clear_chan_interrupt_flag                 ../../prjgcc/MUXlab4/lib\libMUXlab4p.a(etpu_util.MUXLAB4p.o)
fs_etpu_clear_global_exceptions                   ../../prjgcc/MUXlab4/lib\libMUXlab4p.a(etpu_util.MUXLAB4p.o)
fs_etpu_clear_idle_cnt_a                          ../../prjgcc/MUXlab4/lib\libMUXlab4p.a(etpu_util.MUXLAB4p.o)
fs_etpu_clear_idle_cnt_b                          ../../prjgcc/MUXlab4/lib\libMUXlab4p.a(etpu_util.MUXLAB4p.o)
fs_etpu_code_start                                ../../prjgcc/MUXlab4/lib\libMUXlab4p.a(libMUXlab4.MUXLAB4p.o)
                                                  ../../prjgcc/MUXlab4/lib\libMUXlab4p.a(etpu_util.MUXLAB4p.o)
fs_etpu_coherent_read_24                          ../../prjgcc/MUXlab4/lib\libMUXlab4p.a(etpu_util.MUXLAB4p.o)
fs_etpu_coherent_read_32                          ../../prjgcc/MUXlab4/lib\libMUXlab4p.a(etpu_util.MUXLAB4p.o)
fs_etpu_coherent_write_24                         ../../prjgcc/MUXlab4/lib\libMUXlab4p.a(etpu_util.MUXLAB4p.o)
fs_etpu_coherent_write_32                         ../../prjgcc/MUXlab4/lib\libMUXlab4p.a(etpu_util.MUXLAB4p.o)
fs_etpu_data_ram                                  ../../prjgcc/MUXlab4/lib\libMUXlab4p.a(etpu_util.MUXLAB4p.o)
                                                  ../../prjgcc/MUXlab4/lib\libMUXlab4p.a(etpu_ppa.MUXLAB4p.o)
                                                  ../../prjgcc/MUXlab4/lib\libMUXlab4p.a(etpu_pwm.MUXLAB4p.o)
                                                  ../../prjgcc/MUXlab4/lib\libMUXlab4p.a(etpu_fpm.MUXLAB4p.o)
fs_etpu_data_ram_end                              ../../prjgcc/MUXlab4/lib\libMUXlab4p.a(libMUXlab4.MUXLAB4p.o)
                                                  ../../prjgcc/MUXlab4/lib\libMUXlab4p.a(etpu_util.MUXLAB4p.o)
fs_etpu_data_ram_ext                              ../../prjgcc/MUXlab4/lib\libMUXlab4p.a(libMUXlab4.MUXLAB4p.o)
                                                  ../../prjgcc/MUXlab4/lib\libMUXlab4p.a(etpu_util.MUXLAB4p.o)
fs_etpu_data_ram_start                            ../../prjgcc/MUXlab4/lib\libMUXlab4p.a(libMUXlab4.MUXLAB4p.o)
                                                  ../../prjgcc/MUXlab4/lib\libMUXlab4p.a(etpu_ppa.MUXLAB4p.o)
                                                  ../../prjgcc/MUXlab4/lib\libMUXlab4p.a(etpu_pwm.MUXLAB4p.o)
                                                  ../../prjgcc/MUXlab4/lib\libMUXlab4p.a(etpu_fpm.MUXLAB4p.o)
                                                  ../../prjgcc/MUXlab4/lib\libMUXlab4p.a(etpu_util.MUXLAB4p.o)
fs_etpu_disable                                   ../../prjgcc/MUXlab4/lib\libMUXlab4p.a(etpu_util.MUXLAB4p.o)
                                                  ../../prjgcc/MUXlab4/lib\libMUXlab4p.a(etpu_ppa.MUXLAB4p.o)
                                                  ../../prjgcc/MUXlab4/lib\libMUXlab4p.a(etpu_pwm.MUXLAB4p.o)
                                                  ../../prjgcc/MUXlab4/lib\libMUXlab4p.a(etpu_fpm.MUXLAB4p.o)
fs_etpu_dma_disable                               ../../prjgcc/MUXlab4/lib\libMUXlab4p.a(etpu_util.MUXLAB4p.o)
fs_etpu_dma_enable                                ../../prjgcc/MUXlab4/lib\libMUXlab4p.a(etpu_util.MUXLAB4p.o)
fs_etpu_enable                                    ../../prjgcc/MUXlab4/lib\libMUXlab4p.a(etpu_util.MUXLAB4p.o)
fs_etpu_fpm_get_count                             ../../prjgcc/MUXlab4/lib\libMUXlab4p.a(etpu_fpm.MUXLAB4p.o)
fs_etpu_fpm_get_freq                              ../../prjgcc/MUXlab4/lib\libMUXlab4p.a(etpu_fpm.MUXLAB4p.o)
                                                  ../../prjgcc/MUXlab4/lib\libMUXlab4p.a(eTPU_HAL.MUXLAB4p.o)
fs_etpu_fpm_init                                  ../../prjgcc/MUXlab4/lib\libMUXlab4p.a(etpu_fpm.MUXLAB4p.o)
                                                  ../../prjgcc/MUXlab4/lib\libMUXlab4p.a(eTPU_HAL.MUXLAB4p.o)
fs_etpu_fpm_update_window_size                    ../../prjgcc/MUXlab4/lib\libMUXlab4p.a(etpu_fpm.MUXLAB4p.o)
fs_etpu_get_chan_dma_flag                         ../../prjgcc/MUXlab4/lib\libMUXlab4p.a(etpu_util.MUXLAB4p.o)
fs_etpu_get_chan_interrupt_flag                   ../../prjgcc/MUXlab4/lib\libMUXlab4p.a(etpu_util.MUXLAB4p.o)
fs_etpu_get_chan_local_16                         ../../prjgcc/MUXlab4/lib\libMUXlab4p.a(etpu_util.MUXLAB4p.o)
fs_etpu_get_chan_local_24                         ../../prjgcc/MUXlab4/lib\libMUXlab4p.a(etpu_util.MUXLAB4p.o)
fs_etpu_get_chan_local_24s                        ../../prjgcc/MUXlab4/lib\libMUXlab4p.a(etpu_util.MUXLAB4p.o)
fs_etpu_get_chan_local_32                         ../../prjgcc/MUXlab4/lib\libMUXlab4p.a(etpu_util.MUXLAB4p.o)
fs_etpu_get_chan_local_8                          ../../prjgcc/MUXlab4/lib\libMUXlab4p.a(etpu_util.MUXLAB4p.o)
fs_etpu_get_global_16                             ../../prjgcc/MUXlab4/lib\libMUXlab4p.a(etpu_util.MUXLAB4p.o)
fs_etpu_get_global_24                             ../../prjgcc/MUXlab4/lib\libMUXlab4p.a(etpu_util.MUXLAB4p.o)
fs_etpu_get_global_24s                            ../../prjgcc/MUXlab4/lib\libMUXlab4p.a(etpu_util.MUXLAB4p.o)
fs_etpu_get_global_32                             ../../prjgcc/MUXlab4/lib\libMUXlab4p.a(etpu_util.MUXLAB4p.o)
fs_etpu_get_global_8                              ../../prjgcc/MUXlab4/lib\libMUXlab4p.a(etpu_util.MUXLAB4p.o)
fs_etpu_get_global_error                          ../../prjgcc/MUXlab4/lib\libMUXlab4p.a(etpu_util.MUXLAB4p.o)
fs_etpu_get_global_exceptions                     ../../prjgcc/MUXlab4/lib\libMUXlab4p.a(etpu_util.MUXLAB4p.o)
fs_etpu_get_hsr                                   ../../prjgcc/MUXlab4/lib\libMUXlab4p.a(etpu_util.MUXLAB4p.o)
fs_etpu_get_idle_cnt_a                            ../../prjgcc/MUXlab4/lib\libMUXlab4p.a(etpu_util.MUXLAB4p.o)
fs_etpu_get_idle_cnt_b                            ../../prjgcc/MUXlab4/lib\libMUXlab4p.a(etpu_util.MUXLAB4p.o)
fs_etpu_init                                      ../../prjgcc/MUXlab4/lib\libMUXlab4p.a(etpu_util.MUXLAB4p.o)
                                                  ../../prjgcc/MUXlab4/lib\libMUXlab4p.a(eTPU_HAL.MUXLAB4p.o)
fs_etpu_interrupt_disable                         ../../prjgcc/MUXlab4/lib\libMUXlab4p.a(etpu_util.MUXLAB4p.o)
fs_etpu_interrupt_enable                          ../../prjgcc/MUXlab4/lib\libMUXlab4p.a(etpu_util.MUXLAB4p.o)
fs_etpu_malloc                                    ../../prjgcc/MUXlab4/lib\libMUXlab4p.a(etpu_util.MUXLAB4p.o)
                                                  ../../prjgcc/MUXlab4/lib\libMUXlab4p.a(etpu_ppa.MUXLAB4p.o)
                                                  ../../prjgcc/MUXlab4/lib\libMUXlab4p.a(etpu_pwm.MUXLAB4p.o)
                                                  ../../prjgcc/MUXlab4/lib\libMUXlab4p.a(etpu_fpm.MUXLAB4p.o)
fs_etpu_malloc2                                   ../../prjgcc/MUXlab4/lib\libMUXlab4p.a(etpu_util.MUXLAB4p.o)
fs_etpu_ppa_get_accumulation                      ../../prjgcc/MUXlab4/lib\libMUXlab4p.a(etpu_ppa.MUXLAB4p.o)
                                                  ../../prjgcc/MUXlab4/lib\libMUXlab4p.a(eTPU_HAL.MUXLAB4p.o)
fs_etpu_ppa_get_immediate                         ../../prjgcc/MUXlab4/lib\libMUXlab4p.a(etpu_ppa.MUXLAB4p.o)
fs_etpu_ppa_init                                  ../../prjgcc/MUXlab4/lib\libMUXlab4p.a(etpu_ppa.MUXLAB4p.o)
                                                  ../../prjgcc/MUXlab4/lib\libMUXlab4p.a(eTPU_HAL.MUXLAB4p.o)
fs_etpu_pwm_duty                                  ../../prjgcc/MUXlab4/lib\libMUXlab4p.a(etpu_pwm.MUXLAB4p.o)
fs_etpu_pwm_duty_immed                            ../../prjgcc/MUXlab4/lib\libMUXlab4p.a(etpu_pwm.MUXLAB4p.o)
fs_etpu_pwm_get_freq                              ../../prjgcc/MUXlab4/lib\libMUXlab4p.a(etpu_pwm.MUXLAB4p.o)
fs_etpu_pwm_init                                  ../../prjgcc/MUXlab4/lib\libMUXlab4p.a(etpu_pwm.MUXLAB4p.o)
                                                  ../../prjgcc/MUXlab4/lib\libMUXlab4p.a(eTPU_HAL.MUXLAB4p.o)
fs_etpu_pwm_update                                ../../prjgcc/MUXlab4/lib\libMUXlab4p.a(etpu_pwm.MUXLAB4p.o)
                                                  ../../prjgcc/MUXlab4/lib\libMUXlab4p.a(eTPU_HAL.MUXLAB4p.o)
fs_etpu_set_chan_local_16                         ../../prjgcc/MUXlab4/lib\libMUXlab4p.a(etpu_util.MUXLAB4p.o)
fs_etpu_set_chan_local_24                         ../../prjgcc/MUXlab4/lib\libMUXlab4p.a(etpu_util.MUXLAB4p.o)
fs_etpu_set_chan_local_32                         ../../prjgcc/MUXlab4/lib\libMUXlab4p.a(etpu_util.MUXLAB4p.o)
fs_etpu_set_chan_local_8                          ../../prjgcc/MUXlab4/lib\libMUXlab4p.a(etpu_util.MUXLAB4p.o)
fs_etpu_set_dma_mask_a                            ../../prjgcc/MUXlab4/lib\libMUXlab4p.a(etpu_util.MUXLAB4p.o)
fs_etpu_set_dma_mask_b                            ../../prjgcc/MUXlab4/lib\libMUXlab4p.a(etpu_util.MUXLAB4p.o)
fs_etpu_set_global_16                             ../../prjgcc/MUXlab4/lib\libMUXlab4p.a(etpu_util.MUXLAB4p.o)
fs_etpu_set_global_24                             ../../prjgcc/MUXlab4/lib\libMUXlab4p.a(etpu_util.MUXLAB4p.o)
fs_etpu_set_global_32                             ../../prjgcc/MUXlab4/lib\libMUXlab4p.a(etpu_util.MUXLAB4p.o)
fs_etpu_set_global_8                              ../../prjgcc/MUXlab4/lib\libMUXlab4p.a(etpu_util.MUXLAB4p.o)
fs_etpu_set_hsr                                   ../../prjgcc/MUXlab4/lib\libMUXlab4p.a(etpu_util.MUXLAB4p.o)
fs_etpu_set_interrupt_mask_a                      ../../prjgcc/MUXlab4/lib\libMUXlab4p.a(etpu_util.MUXLAB4p.o)
fs_etpu_set_interrupt_mask_b                      ../../prjgcc/MUXlab4/lib\libMUXlab4p.a(etpu_util.MUXLAB4p.o)
fs_etpu_set_output_disable_mask_a                 ../../prjgcc/MUXlab4/lib\libMUXlab4p.a(etpu_util.MUXLAB4p.o)
fs_etpu_set_output_disable_mask_b                 ../../prjgcc/MUXlab4/lib\libMUXlab4p.a(etpu_util.MUXLAB4p.o)
fs_free_param                                     ../../prjgcc/MUXlab4/lib\libMUXlab4p.a(etpu_util.MUXLAB4p.o)
                                                  ../../prjgcc/MUXlab4/lib\libMUXlab4p.a(eTPU_HAL.MUXLAB4p.o)
fs_memcpy32                                       ../../prjgcc/MUXlab4/lib\libMUXlab4p.a(etpu_util.MUXLAB4p.o)
fs_memset32                                       ../../prjgcc/MUXlab4/lib\libMUXlab4p.a(etpu_util.MUXLAB4p.o)
fs_timer_start                                    ../../prjgcc/MUXlab4/lib\libMUXlab4p.a(etpu_util.MUXLAB4p.o)
                                                  ../../prjgcc/MUXlab4/lib\libMUXlab4p.a(eTPU_HAL.MUXLAB4p.o)
gasSensorState                                    ../../prjgcc/MUXlab4/lib\libMUXlab4p.a(GasSensor.MUXLAB4p.o)
gateways                                          ../../prjgcc/MUXlab4/lib\libMUXlab4p.a(can.MUXLAB4p.o)
                                                  ../../prjgcc/MUXlab4/lib\libMUXlab4p.a(CAN_HAL.MUXLAB4p.o)
hardVersion                                       ../../prjgcc/MUXlab4/lib\libMUXlab4p.a(libMUXlab4.MUXLAB4p.o)
                                                  ../../prjgcc/MUXlab4/lib\libMUXlab4p.a(DAC_HAL.MUXLAB4p.o)
index_search                                      ../../prjgcc/MUXlab4/lib\libMUXlab4p.a(CAN_J1939.MUXLAB4p.o)
initAnaOutputs                                    ../../prjgcc/MUXlab4/lib\libMUXlab4p.a(DAC_HAL.MUXLAB4p.o)
                                                  ../../prjgcc/MUXlab4/lib\libMUXlab4p.a(libMUXlab4.MUXLAB4p.o)
initDigitalInput                                  ../../prjgcc/MUXlab4/lib\libMUXlab4p.a(GPIO_HAL.MUXLAB4p.o)
                                                  ./obj/MainTask.o
initDigitalInputs                                 ../../prjgcc/MUXlab4/lib\libMUXlab4p.a(GPIO_HAL.MUXLAB4p.o)
                                                  ../../prjgcc/MUXlab4/lib\libMUXlab4p.a(libMUXlab4.MUXLAB4p.o)
initDigitalOutput                                 ../../prjgcc/MUXlab4/lib\libMUXlab4p.a(GPIO_HAL.MUXLAB4p.o)
                                                  ../../prjgcc/MUXlab4/lib\libMUXlab4p.a(GasSensor.MUXLAB4p.o)
initDigitalOutputs                                ../../prjgcc/MUXlab4/lib\libMUXlab4p.a(GPIO_HAL.MUXLAB4p.o)
                                                  ../../prjgcc/MUXlab4/lib\libMUXlab4p.a(libMUXlab4.MUXLAB4p.o)
initPowerHold                                     ../../prjgcc/MUXlab4/lib\libMUXlab4p.a(GPIO_HAL.MUXLAB4p.o)
                                                  ../../prjgcc/MUXlab4/lib\libMUXlab4p.a(libMUXlab4.MUXLAB4p.o)
linStates                                         ../../prjgcc/MUXlab4/lib\libMUXlab4p.a(LIN.MUXLAB4p.o)
                                                  ../../prjgcc/MUXlab4/lib\libMUXlab4p.a(LIN_HAL.MUXLAB4p.o)
                                                  ../../prjgcc/MUXlab4/lib\libMUXlab4p.a(GPIO_HAL.MUXLAB4p.o)
look1_iu16tdIu16_binlca                           ./obj/TBRe_Mod.o
                                                  ./obj/MainTask.o
look1_iu8lu16n16ts16Ds_FbqVATJM                   ./obj/TBRe_Mod.o
                                                  ./obj/MainTask.o
main                                              ./obj/main.o
                                                  ./obj/__start.o
maskPWMUsedByModel                                ../../prjgcc/MUXlab4/lib\libMUXlab4p.a(SoftSPI.MUXLAB4p.o)
                                                  ../../prjgcc/MUXlab4/lib\libMUXlab4p.a(GasSensor.MUXLAB4p.o)
                                                  ../../prjgcc/MUXlab4/lib\libMUXlab4p.a(IntcIsrVectors.MUXLAB4p.o)
                                                  ../../prjgcc/MUXlab4/lib\libMUXlab4p.a(libMUXlab4.MUXLAB4p.o)
                                                  ../../prjgcc/MUXlab4/lib\libMUXlab4p.a(eTPU_HAL.MUXLAB4p.o)
                                                  ./obj/TBRe_Mod_data.o
                                                  ./obj/TBRe_Mod.o
                                                  ./obj/MainTask.o
                                                  ./obj/FlashData.o
                                                  ./obj/DiagnosticsCAN.o
masterChannel                                     ../../prjgcc/MUXlab4/lib\libMUXlab4p.a(LIN_HAL.MUXLAB4p.o)
memcpy                                            C:/Program Files (x86)/Nsi/powerpc-eabispe/bin/../lib/gcc/powerpc-eabispe/3.4.4/../../../../powerpc-eabispe/lib\libc.a(memcpy.o)
                                                  ../../prjgcc/MUXlab4/lib\libMUXlab4p.a(USB.MUXLAB4p.o)
                                                  ../../prjgcc/MUXlab4/lib\libMUXlab4p.a(eTPU_HAL.MUXLAB4p.o)
                                                  ./obj/CRCJ1850.o
memset                                            C:/Program Files (x86)/Nsi/powerpc-eabispe/bin/../lib/gcc/powerpc-eabispe/3.4.4/../../../../powerpc-eabispe/lib\libc.a(memset.o)
                                                  ./obj/TBRe_Mod.o
my_etpu_config                                    ../../prjgcc/MUXlab4/lib\libMUXlab4p.a(eTPU_HAL.MUXLAB4p.o)
nbRxFramesUsedByModel                             ../../prjgcc/MUXlab4/lib\libMUXlab4p.a(can.MUXLAB4p.o)
nbTxFramesUsedByModel                             ../../prjgcc/MUXlab4/lib\libMUXlab4p.a(can.MUXLAB4p.o)
newGasMeasurementAvailable                        ../../prjgcc/MUXlab4/lib\libMUXlab4p.a(GasSensor.MUXLAB4p.o)
num_packet                                        ../../prjgcc/MUXlab4/lib\libMUXlab4p.a(CAN_J1939.MUXLAB4p.o)
num_sequence                                      ../../prjgcc/MUXlab4/lib\libMUXlab4p.a(CAN_J1939.MUXLAB4p.o)
objCan1AccelerometerY                             ./obj/main.o
                                                  ./obj/MainTask.o
objCan1BMS_Feedback_1                             ./obj/main.o
                                                  ./obj/MainTask.o
objCan1BMS_Feedback_2                             ./obj/main.o
                                                  ./obj/MainTask.o
objCan1BMS_Feedback_3                             ./obj/main.o
                                                  ./obj/MainTask.o
objCan1Front_Wheel_Speeds                         ./obj/main.o
                                                  ./obj/MainTask.o
objCan1Rear_Wheel_Speeds                          ./obj/main.o
                                                  ./obj/MainTask.o
objCan1Shutdown_Data                              ./obj/main.o
                                                  ./obj/MainTask.o
objCan1SteeringWheelSensor                        ./obj/main.o
                                                  ./obj/MainTask.o
objCan1VCU_Diagnostics                            ./obj/main.o
                                                  ./obj/DiagnosticsCAN.o
objCan1VCU_HW_IO                                  ./obj/main.o
                                                  ./obj/DiagnosticsCAN.o
objCan1VCU_IMD_Status                             ./obj/main.o
                                                  ./obj/DiagnosticsCAN.o
objCan1VCU_Pedal_Percentages                      ./obj/main.o
                                                  ./obj/DiagnosticsCAN.o
objCan1VCU_Pedal_Voltages                         ./obj/main.o
                                                  ./obj/DiagnosticsCAN.o
objCan1VCU_Torque                                 ./obj/main.o
                                                  ./obj/DiagnosticsCAN.o
objCan1VCU_Vehicle_Functionality                  ./obj/main.o
                                                  ./obj/DiagnosticsCAN.o
objCan2HC1_Demands                                ./obj/main.o
                                                  ./obj/MainTask.o
objCan2HC2_Demands                                ./obj/main.o
                                                  ./obj/MainTask.o
objCan2HC3_Battery_Demands                        ./obj/main.o
                                                  ./obj/MainTask.o
objCan2HC4_Debug_Demands                          ./obj/main.o
                                                  ./obj/MainTask.o
objCan2HD4_Debug_Temperatures_B                   ./obj/main.o
                                                  ./obj/MainTask.o
objCan2HS1_Torque_Feedback                        ./obj/main.o
                                                  ./obj/MainTask.o
objCan2HS3_Temperature_Feedback                   ./obj/main.o
                                                  ./obj/MainTask.o
objCan2HS4_Fault_Info                             ./obj/main.o
                                                  ./obj/MainTask.o
onChipHeaterEnabled                               ../../prjgcc/MUXlab4/lib\libMUXlab4p.a(GasSensor.MUXLAB4p.o)
pFlexCANRX                                        ../../prjgcc/MUXlab4/lib\libMUXlab4p.a(CAN_J1939.MUXLAB4p.o)
pGasSetupRegToRead                                ../../prjgcc/MUXlab4/lib\libMUXlab4p.a(GasSensor.MUXLAB4p.o)
pHwConfigRegToRead                                ../../prjgcc/MUXlab4/lib\libMUXlab4p.a(GasSensor.MUXLAB4p.o)
pResolutionRegToRead                              ../../prjgcc/MUXlab4/lib\libMUXlab4p.a(GasSensor.MUXLAB4p.o)
pRhSetupRegToRead                                 ../../prjgcc/MUXlab4/lib\libMUXlab4p.a(GasSensor.MUXLAB4p.o)
pScheduleTables                                   ../../prjgcc/MUXlab4/lib\libMUXlab4p.a(LIN_HAL.MUXLAB4p.o)
pUncondFrames                                     ../../prjgcc/MUXlab4/lib\libMUXlab4p.a(LIN.MUXLAB4p.o)
                                                  ../../prjgcc/MUXlab4/lib\libMUXlab4p.a(LIN_HAL.MUXLAB4p.o)
pUserRegToRead                                    ../../prjgcc/MUXlab4/lib\libMUXlab4p.a(GasSensor.MUXLAB4p.o)
packet_size                                       ../../prjgcc/MUXlab4/lib\libMUXlab4p.a(CAN_J1939.MUXLAB4p.o)
readCycleRequested                                ../../prjgcc/MUXlab4/lib\libMUXlab4p.a(GasSensor.MUXLAB4p.o)
readDigitalInput                                  ../../prjgcc/MUXlab4/lib\libMUXlab4p.a(GPIO_HAL.MUXLAB4p.o)
                                                  ./obj/MainTask.o
readDigitalOutputFeedback                         ../../prjgcc/MUXlab4/lib\libMUXlab4p.a(GPIO_HAL.MUXLAB4p.o)
readTimeBase                                      ../../prjgcc/MUXlab4/lib\libMUXlab4p.a(tb.MUXLAB4p.o)
                                                  ../../prjgcc/MUXlab4/lib\libMUXlab4p.a(USB.MUXLAB4p.o)
                                                  ../../prjgcc/MUXlab4/lib\libMUXlab4p.a(OS_Core.MUXLAB4p.o)
readTimeBase32                                    ../../prjgcc/MUXlab4/lib\libMUXlab4p.a(tb.MUXLAB4p.o)
                                                  ../../prjgcc/MUXlab4/lib\libMUXlab4p.a(OS_Core.MUXLAB4p.o)
receive_buffer                                    ../../prjgcc/MUXlab4/lib\libMUXlab4p.a(CCP.MUXLAB4p.o)
refreshWatchdog                                   ../../prjgcc/MUXlab4/lib\libMUXlab4p.a(libMUXlab4.MUXLAB4p.o)
                                                  ../../prjgcc/MUXlab4/lib\libMUXlab4p.a(OS_Core.MUXLAB4p.o)
return_code                                       ../../prjgcc/MUXlab4/lib\libMUXlab4p.a(CCP.MUXLAB4p.o)
rtGetInf                                          ./obj/rtGetInf.o
                                                  ./obj/rt_nonfinite.o
rtGetInfF                                         ./obj/rtGetInf.o
                                                  ./obj/rt_nonfinite.o
rtGetMinusInf                                     ./obj/rtGetInf.o
                                                  ./obj/rt_nonfinite.o
rtGetMinusInfF                                    ./obj/rtGetInf.o
                                                  ./obj/rt_nonfinite.o
rtGetNaN                                          ./obj/rtGetNaN.o
                                                  ./obj/rt_nonfinite.o
rtGetNaNF                                         ./obj/rtGetNaN.o
                                                  ./obj/rt_nonfinite.o
rtInf                                             ./obj/rt_nonfinite.o
rtInfF                                            ./obj/rt_nonfinite.o
rtIsInf                                           ./obj/rt_nonfinite.o
rtIsInfF                                          ./obj/rt_nonfinite.o
rtIsNaN                                           ./obj/rt_nonfinite.o
                                                  ./obj/MainTask.o
rtIsNaNF                                          ./obj/rt_nonfinite.o
rtMinusInf                                        ./obj/rt_nonfinite.o
rtMinusInfF                                       ./obj/rt_nonfinite.o
rtNaN                                             ./obj/rt_nonfinite.o
rtNaNF                                            ./obj/rt_nonfinite.o
rt_InitInfAndNaN                                  ./obj/rt_nonfinite.o
                                                  ./obj/TBRe_Mod.o
rt_roundd_snf                                     ./obj/MainTask.o
sIncrementalVersion                               ./obj/FlashData.o
sLibraryVers                                      ../../prjgcc/MUXlab4/lib\libMUXlab4p.a(libMUXlab4.MUXLAB4p.o)
                                                  ../../prjgcc/MUXlab4/lib\libMUXlab4p.a(USB.MUXLAB4p.o)
sModelDate                                        ./obj/FlashData.o
                                                  ../../prjgcc/MUXlab4/lib\libMUXlab4p.a(USB.MUXLAB4p.o)
sModelDescription                                 ./obj/FlashData.o
                                                  ../../prjgcc/MUXlab4/lib\libMUXlab4p.a(USB.MUXLAB4p.o)
sModelName                                        ./obj/FlashData.o
                                                  ../../prjgcc/MUXlab4/lib\libMUXlab4p.a(USB.MUXLAB4p.o)
sModelVersion                                     ./obj/FlashData.o
                                                  ../../prjgcc/MUXlab4/lib\libMUXlab4p.a(USB.MUXLAB4p.o)
setAnaOutputVoltage                               ../../prjgcc/MUXlab4/lib\libMUXlab4p.a(DAC_HAL.MUXLAB4p.o)
                                                  ../../prjgcc/MUXlab4/lib\libMUXlab4p.a(SoftSPI.MUXLAB4p.o)
                                                  ../../prjgcc/MUXlab4/lib\libMUXlab4p.a(GasSensor.MUXLAB4p.o)
                                                  ./obj/APP_Tasks.o
                                                  ./obj/MainTask.o
sigCan1RxAccelerometerYSignals                    ./obj/main.o
                                                  ./obj/MainTask.o
sigCan1RxBMS_Feedback_1Signals                    ./obj/main.o
                                                  ./obj/MainTask.o
sigCan1RxBMS_Feedback_2Signals                    ./obj/main.o
                                                  ./obj/MainTask.o
sigCan1RxBMS_Feedback_3Signals                    ./obj/main.o
                                                  ./obj/MainTask.o
sigCan1RxFront_Wheel_SpeedsSignals                ./obj/main.o
                                                  ./obj/MainTask.o
sigCan1RxRear_Wheel_SpeedsSignals                 ./obj/main.o
                                                  ./obj/MainTask.o
sigCan1RxShutdown_DataSignals                     ./obj/main.o
                                                  ./obj/MainTask.o
sigCan1RxSteeringWheelSensorSignals               ./obj/main.o
                                                  ./obj/MainTask.o
sigCan1TxVCU_DiagnosticsSignals                   ./obj/main.o
                                                  ./obj/DiagnosticsCAN.o
sigCan1TxVCU_HW_IOSignals                         ./obj/main.o
                                                  ./obj/DiagnosticsCAN.o
sigCan1TxVCU_IMD_StatusSignals                    ./obj/main.o
                                                  ./obj/DiagnosticsCAN.o
sigCan1TxVCU_Pedal_PercentagesSignals             ./obj/main.o
                                                  ./obj/DiagnosticsCAN.o
sigCan1TxVCU_Pedal_VoltagesSignals                ./obj/main.o
                                                  ./obj/DiagnosticsCAN.o
sigCan1TxVCU_TorqueSignals                        ./obj/main.o
                                                  ./obj/DiagnosticsCAN.o
sigCan1TxVCU_Vehicle_FunctionalitySignals         ./obj/main.o
                                                  ./obj/DiagnosticsCAN.o
sigCan2RxHD4_Debug_Temperatures_BSignals          ./obj/main.o
                                                  ./obj/MainTask.o
sigCan2RxHS1_Torque_FeedbackSignals               ./obj/main.o
                                                  ./obj/MainTask.o
sigCan2RxHS3_Temperature_FeedbackSignals          ./obj/main.o
                                                  ./obj/MainTask.o
sigCan2RxHS4_Fault_InfoSignals                    ./obj/main.o
                                                  ./obj/MainTask.o
sigCan2TxHC1_DemandsSignals                       ./obj/main.o
                                                  ./obj/MainTask.o
sigCan2TxHC2_DemandsSignals                       ./obj/main.o
                                                  ./obj/MainTask.o
sigCan2TxHC3_Battery_DemandsSignals               ./obj/main.o
                                                  ./obj/MainTask.o
sigCan2TxHC4_Debug_DemandsSignals                 ./obj/main.o
                                                  ./obj/MainTask.o
smartGateways                                     ../../prjgcc/MUXlab4/lib\libMUXlab4p.a(can.MUXLAB4p.o)
                                                  ../../prjgcc/MUXlab4/lib\libMUXlab4p.a(CAN_HAL.MUXLAB4p.o)
smartGwEnabled                                    ../../prjgcc/MUXlab4/lib\libMUXlab4p.a(can.MUXLAB4p.o)
                                                  ../../prjgcc/MUXlab4/lib\libMUXlab4p.a(CAN_HAL.MUXLAB4p.o)
softSpiCurrentState                               ../../prjgcc/MUXlab4/lib\libMUXlab4p.a(SoftSPI.MUXLAB4p.o)
strlen                                            C:/Program Files (x86)/Nsi/powerpc-eabispe/bin/../lib/gcc/powerpc-eabispe/3.4.4/../../../../powerpc-eabispe/lib\libc.a(strlen.o)
                                                  ../../prjgcc/MUXlab4/lib\libMUXlab4p.a(OS_Core.MUXLAB4p.o)
tab_rx_usb                                        ./obj/FlashData.o
                                                  ../../prjgcc/MUXlab4/lib\libMUXlab4p.a(USB.MUXLAB4p.o)
tab_rx_usb_size                                   ./obj/FlashData.o
                                                  ../../prjgcc/MUXlab4/lib\libMUXlab4p.a(USB.MUXLAB4p.o)
u08BypassPWMMask                                  ../../prjgcc/MUXlab4/lib\libMUXlab4p.a(SoftSPI.MUXLAB4p.o)
                                                  ../../prjgcc/MUXlab4/lib\libMUXlab4p.a(GasSensor.MUXLAB4p.o)
                                                  ../../prjgcc/MUXlab4/lib\libMUXlab4p.a(IntcIsrVectors.MUXLAB4p.o)
                                                  ../../prjgcc/MUXlab4/lib\libMUXlab4p.a(libMUXlab4.MUXLAB4p.o)
                                                  ../../prjgcc/MUXlab4/lib\libMUXlab4p.a(eTPU_HAL.MUXLAB4p.o)
                                                  ./obj/TBRe_Mod_data.o
                                                  ./obj/TBRe_Mod.o
                                                  ./obj/MainTask.o
                                                  ./obj/FlashData.o
                                                  ./obj/DiagnosticsCAN.o
u08ChecksumTx                                     ../../prjgcc/MUXlab4/lib\libMUXlab4p.a(USB.MUXLAB4p.o)
u08CurrentMAX13036                                ../../prjgcc/MUXlab4/lib\libMUXlab4p.a(SPI.MUXLAB4p.o)
u08CurrentReadAddress                             ../../prjgcc/MUXlab4/lib\libMUXlab4p.a(GasSensor.MUXLAB4p.o)
u08GasTaskId                                      ../../prjgcc/MUXlab4/lib\libMUXlab4p.a(GasSensor.MUXLAB4p.o)
u08HeatValue                                      ../../prjgcc/MUXlab4/lib\libMUXlab4p.a(GasSensor.MUXLAB4p.o)
u08NbRemainingBits                                ../../prjgcc/MUXlab4/lib\libMUXlab4p.a(SoftSPI.MUXLAB4p.o)
u08NbScheduleTables                               ../../prjgcc/MUXlab4/lib\libMUXlab4p.a(LIN_HAL.MUXLAB4p.o)
u08TaskProcessUSBMsg                              ../../prjgcc/MUXlab4/lib\libMUXlab4p.a(USB.MUXLAB4p.o)
                                                  ../../prjgcc/MUXlab4/lib\libMUXlab4p.a(OS_Core.MUXLAB4p.o)
u08TaskSendUSBErrorMsg                            ../../prjgcc/MUXlab4/lib\libMUXlab4p.a(USB.MUXLAB4p.o)
                                                  ../../prjgcc/MUXlab4/lib\libMUXlab4p.a(OS_Core.MUXLAB4p.o)
u08TaskSendUSBPendingData                         ../../prjgcc/MUXlab4/lib\libMUXlab4p.a(USB.MUXLAB4p.o)
                                                  ../../prjgcc/MUXlab4/lib\libMUXlab4p.a(OS_Core.MUXLAB4p.o)
u08TxDebugTimeout                                 ../../prjgcc/MUXlab4/lib\libMUXlab4p.a(USB.MUXLAB4p.o)
                                                  ../../prjgcc/MUXlab4/lib\libMUXlab4p.a(OS_Core.MUXLAB4p.o)
u16BauderateSave                                  ../../prjgcc/MUXlab4/lib\libMUXlab4p.a(LIN.MUXLAB4p.o)
u16GasSetupRegToWrite                             ../../prjgcc/MUXlab4/lib\libMUXlab4p.a(GasSensor.MUXLAB4p.o)
u16HwConfigRegToWrite                             ../../prjgcc/MUXlab4/lib\libMUXlab4p.a(GasSensor.MUXLAB4p.o)
u16LastDiagnosis                                  ../../prjgcc/MUXlab4/lib\libMUXlab4p.a(GasSensor.MUXLAB4p.o)
u16LastGas1Measurement                            ../../prjgcc/MUXlab4/lib\libMUXlab4p.a(GasSensor.MUXLAB4p.o)
u16LastGas2Measurement                            ../../prjgcc/MUXlab4/lib\libMUXlab4p.a(GasSensor.MUXLAB4p.o)
u16LastHumidMeasurement                           ../../prjgcc/MUXlab4/lib\libMUXlab4p.a(GasSensor.MUXLAB4p.o)
u16LastTempMeasurement                            ../../prjgcc/MUXlab4/lib\libMUXlab4p.a(GasSensor.MUXLAB4p.o)
u16Max13036WordRegister                           ../../prjgcc/MUXlab4/lib\libMUXlab4p.a(SPI.MUXLAB4p.o)
                                                  ../../prjgcc/MUXlab4/lib\libMUXlab4p.a(wakeup_HAL.MUXLAB4p.o)
                                                  ../../prjgcc/MUXlab4/lib\libMUXlab4p.a(GPIO_HAL.MUXLAB4p.o)
u16ResolutionRegToWrite                           ../../prjgcc/MUXlab4/lib\libMUXlab4p.a(GasSensor.MUXLAB4p.o)
u16RhSetupRegToWrite                              ../../prjgcc/MUXlab4/lib\libMUXlab4p.a(GasSensor.MUXLAB4p.o)
u16UserRegToWrite                                 ../../prjgcc/MUXlab4/lib\libMUXlab4p.a(GasSensor.MUXLAB4p.o)
u32AdcResult                                      ../../prjgcc/MUXlab4/lib\libMUXlab4p.a(ADC.MUXLAB4p.o)
u32BreakDetectionTreshold                         ../../prjgcc/MUXlab4/lib\libMUXlab4p.a(LIN.MUXLAB4p.o)
u32BreakLength                                    ../../prjgcc/MUXlab4/lib\libMUXlab4p.a(LIN.MUXLAB4p.o)
u32SoftSpiShiftRegister                           ../../prjgcc/MUXlab4/lib\libMUXlab4p.a(SoftSPI.MUXLAB4p.o)
                                                  ../../prjgcc/MUXlab4/lib\libMUXlab4p.a(GasSensor.MUXLAB4p.o)
u32THeaderMaxLength                               ../../prjgcc/MUXlab4/lib\libMUXlab4p.a(LIN.MUXLAB4p.o)
u32THeaderTimeout                                 ../../prjgcc/MUXlab4/lib\libMUXlab4p.a(LIN.MUXLAB4p.o)
u32Tbit                                           ../../prjgcc/MUXlab4/lib\libMUXlab4p.a(LIN.MUXLAB4p.o)
u32TickTimer                                      ../../prjgcc/MUXlab4/lib\libMUXlab4p.a(OS_Core.MUXLAB4p.o)
                                                  ../../prjgcc/MUXlab4/lib\libMUXlab4p.a(can.MUXLAB4p.o)
                                                  ../../prjgcc/MUXlab4/lib\libMUXlab4p.a(ADC.MUXLAB4p.o)
                                                  ../../prjgcc/MUXlab4/lib\libMUXlab4p.a(USB.MUXLAB4p.o)
                                                  ../../prjgcc/MUXlab4/lib\libMUXlab4p.a(LIN.MUXLAB4p.o)
                                                  ../../prjgcc/MUXlab4/lib\libMUXlab4p.a(LIN_HAL.MUXLAB4p.o)
                                                  ../../prjgcc/MUXlab4/lib\libMUXlab4p.a(GPIO_HAL.MUXLAB4p.o)
u32Timer1us                                       ../../prjgcc/MUXlab4/lib\libMUXlab4p.a(OS_Core.MUXLAB4p.o)
u32maskHighReservedMbRx                           ../../prjgcc/MUXlab4/lib\libMUXlab4p.a(can.MUXLAB4p.o)
u32maskLowReservedMbRx                            ../../prjgcc/MUXlab4/lib\libMUXlab4p.a(can.MUXLAB4p.o)
u32maskReservedMbTx                               ../../prjgcc/MUXlab4/lib\libMUXlab4p.a(can.MUXLAB4p.o)
writeCycleRequested                               ../../prjgcc/MUXlab4/lib\libMUXlab4p.a(GasSensor.MUXLAB4p.o)
writeDigitalOutput                                ../../prjgcc/MUXlab4/lib\libMUXlab4p.a(GPIO_HAL.MUXLAB4p.o)
                                                  ../../prjgcc/MUXlab4/lib\libMUXlab4p.a(GasSensor.MUXLAB4p.o)
                                                  ./obj/MainTask.o
writeDigitalOutputPWM                             ../../prjgcc/MUXlab4/lib\libMUXlab4p.a(GPIO_HAL.MUXLAB4p.o)
